
rv32uzba-v-sh3add:     file format elf32-littleriscv


Disassembly of section .text.init:

80000000 <_start>:
80000000:	00c0006f          	j	8000000c <handle_reset>

80000004 <nmi_vector>:
80000004:	2fc0206f          	j	80002300 <wtf>

80000008 <trap_vector>:
80000008:	2f80206f          	j	80002300 <wtf>

8000000c <handle_reset>:
8000000c:	00000093          	li	ra,0
80000010:	00000113          	li	sp,0
80000014:	00000193          	li	gp,0
80000018:	00000213          	li	tp,0
8000001c:	00000293          	li	t0,0
80000020:	00000313          	li	t1,0
80000024:	00000393          	li	t2,0
80000028:	00000413          	li	s0,0
8000002c:	00000493          	li	s1,0
80000030:	00000513          	li	a0,0
80000034:	00000593          	li	a1,0
80000038:	00000613          	li	a2,0
8000003c:	00000693          	li	a3,0
80000040:	00000713          	li	a4,0
80000044:	00000793          	li	a5,0
80000048:	00000813          	li	a6,0
8000004c:	00000893          	li	a7,0
80000050:	00000913          	li	s2,0
80000054:	00000993          	li	s3,0
80000058:	00000a13          	li	s4,0
8000005c:	00000a93          	li	s5,0
80000060:	00000b13          	li	s6,0
80000064:	00000b93          	li	s7,0
80000068:	00000c13          	li	s8,0
8000006c:	00000c93          	li	s9,0
80000070:	00000d13          	li	s10,0
80000074:	00000d93          	li	s11,0
80000078:	00000e13          	li	t3,0
8000007c:	00000e93          	li	t4,0
80000080:	00000f13          	li	t5,0
80000084:	00000f93          	li	t6,0
80000088:	00000297          	auipc	t0,0x0
8000008c:	01028293          	addi	t0,t0,16 # 80000098 <handle_reset+0x8c>
80000090:	30529073          	csrw	mtvec,t0
80000094:	74445073          	csrwi	0x744,8
80000098:	00000297          	auipc	t0,0x0
8000009c:	f7028293          	addi	t0,t0,-144 # 80000008 <trap_vector>
800000a0:	30529073          	csrw	mtvec,t0
800000a4:	0000b117          	auipc	sp,0xb
800000a8:	ecc10113          	addi	sp,sp,-308 # 8000af70 <freelist_head+0x3f6c>
800000ac:	f14022f3          	csrr	t0,mhartid
800000b0:	00c29293          	slli	t0,t0,0xc
800000b4:	00510133          	add	sp,sp,t0
800000b8:	34011073          	csrw	mscratch,sp
800000bc:	22d020ef          	jal	80002ae8 <extra_boot>
800000c0:	00003517          	auipc	a0,0x3
800000c4:	a3c50513          	addi	a0,a0,-1476 # 80002afc <userstart>
800000c8:	0390206f          	j	80002900 <vm_boot>

800000cc <pop_tf>:
800000cc:	08452283          	lw	t0,132(a0)
800000d0:	14129073          	csrw	sepc,t0
800000d4:	00452083          	lw	ra,4(a0)
800000d8:	00852103          	lw	sp,8(a0)
800000dc:	00c52183          	lw	gp,12(a0)
800000e0:	01052203          	lw	tp,16(a0)
800000e4:	01452283          	lw	t0,20(a0)
800000e8:	01852303          	lw	t1,24(a0)
800000ec:	01c52383          	lw	t2,28(a0)
800000f0:	02052403          	lw	s0,32(a0)
800000f4:	02452483          	lw	s1,36(a0)
800000f8:	02c52583          	lw	a1,44(a0)
800000fc:	03052603          	lw	a2,48(a0)
80000100:	03452683          	lw	a3,52(a0)
80000104:	03852703          	lw	a4,56(a0)
80000108:	03c52783          	lw	a5,60(a0)
8000010c:	04052803          	lw	a6,64(a0)
80000110:	04452883          	lw	a7,68(a0)
80000114:	04852903          	lw	s2,72(a0)
80000118:	04c52983          	lw	s3,76(a0)
8000011c:	05052a03          	lw	s4,80(a0)
80000120:	05452a83          	lw	s5,84(a0)
80000124:	05852b03          	lw	s6,88(a0)
80000128:	05c52b83          	lw	s7,92(a0)
8000012c:	06052c03          	lw	s8,96(a0)
80000130:	06452c83          	lw	s9,100(a0)
80000134:	06852d03          	lw	s10,104(a0)
80000138:	06c52d83          	lw	s11,108(a0)
8000013c:	07052e03          	lw	t3,112(a0)
80000140:	07452e83          	lw	t4,116(a0)
80000144:	07852f03          	lw	t5,120(a0)
80000148:	07c52f83          	lw	t6,124(a0)
8000014c:	02852503          	lw	a0,40(a0)
80000150:	10200073          	sret

80000154 <trap_entry>:
80000154:	14011173          	csrrw	sp,sscratch,sp
80000158:	00112223          	sw	ra,4(sp)
8000015c:	00312623          	sw	gp,12(sp)
80000160:	00412823          	sw	tp,16(sp)
80000164:	00512a23          	sw	t0,20(sp)
80000168:	00612c23          	sw	t1,24(sp)
8000016c:	00712e23          	sw	t2,28(sp)
80000170:	02812023          	sw	s0,32(sp)
80000174:	02912223          	sw	s1,36(sp)
80000178:	02a12423          	sw	a0,40(sp)
8000017c:	02b12623          	sw	a1,44(sp)
80000180:	02c12823          	sw	a2,48(sp)
80000184:	02d12a23          	sw	a3,52(sp)
80000188:	02e12c23          	sw	a4,56(sp)
8000018c:	02f12e23          	sw	a5,60(sp)
80000190:	05012023          	sw	a6,64(sp)
80000194:	05112223          	sw	a7,68(sp)
80000198:	05212423          	sw	s2,72(sp)
8000019c:	05312623          	sw	s3,76(sp)
800001a0:	05412823          	sw	s4,80(sp)
800001a4:	05512a23          	sw	s5,84(sp)
800001a8:	05612c23          	sw	s6,88(sp)
800001ac:	05712e23          	sw	s7,92(sp)
800001b0:	07812023          	sw	s8,96(sp)
800001b4:	07912223          	sw	s9,100(sp)
800001b8:	07a12423          	sw	s10,104(sp)
800001bc:	07b12623          	sw	s11,108(sp)
800001c0:	07c12823          	sw	t3,112(sp)
800001c4:	07d12a23          	sw	t4,116(sp)
800001c8:	07e12c23          	sw	t5,120(sp)
800001cc:	07f12e23          	sw	t6,124(sp)
800001d0:	140112f3          	csrrw	t0,sscratch,sp
800001d4:	00512423          	sw	t0,8(sp)
800001d8:	100022f3          	csrr	t0,sstatus
800001dc:	08512023          	sw	t0,128(sp)
800001e0:	141022f3          	csrr	t0,sepc
800001e4:	08512223          	sw	t0,132(sp)
800001e8:	143022f3          	csrr	t0,stval
800001ec:	08512423          	sw	t0,136(sp)
800001f0:	142022f3          	csrr	t0,scause
800001f4:	08512623          	sw	t0,140(sp)
800001f8:	00010513          	mv	a0,sp
800001fc:	40c0206f          	j	80002608 <handle_trap>

Disassembly of section .text:

80002000 <memcpy>:
80002000:	00c5e7b3          	or	a5,a1,a2
80002004:	00f567b3          	or	a5,a0,a5
80002008:	0037f793          	andi	a5,a5,3
8000200c:	00c506b3          	add	a3,a0,a2
80002010:	02078463          	beqz	a5,80002038 <memcpy+0x38>
80002014:	00c58633          	add	a2,a1,a2
80002018:	00050793          	mv	a5,a0
8000201c:	02d57e63          	bgeu	a0,a3,80002058 <memcpy+0x58>
80002020:	0005c703          	lbu	a4,0(a1)
80002024:	00158593          	addi	a1,a1,1
80002028:	00178793          	addi	a5,a5,1
8000202c:	fee78fa3          	sb	a4,-1(a5)
80002030:	feb618e3          	bne	a2,a1,80002020 <memcpy+0x20>
80002034:	00008067          	ret
80002038:	fed57ee3          	bgeu	a0,a3,80002034 <memcpy+0x34>
8000203c:	00050793          	mv	a5,a0
80002040:	0005a703          	lw	a4,0(a1)
80002044:	00478793          	addi	a5,a5,4
80002048:	00458593          	addi	a1,a1,4
8000204c:	fee7ae23          	sw	a4,-4(a5)
80002050:	fed7e8e3          	bltu	a5,a3,80002040 <memcpy+0x40>
80002054:	00008067          	ret
80002058:	00008067          	ret

8000205c <memset>:
8000205c:	ff010113          	addi	sp,sp,-16
80002060:	00c567b3          	or	a5,a0,a2
80002064:	00812423          	sw	s0,8(sp)
80002068:	00112623          	sw	ra,12(sp)
8000206c:	0037f793          	andi	a5,a5,3
80002070:	00050413          	mv	s0,a0
80002074:	00c50733          	add	a4,a0,a2
80002078:	02078263          	beqz	a5,8000209c <memset+0x40>
8000207c:	00e57663          	bgeu	a0,a4,80002088 <memset+0x2c>
80002080:	0ff5f593          	zext.b	a1,a1
80002084:	fd9ff0ef          	jal	8000205c <memset>
80002088:	00c12083          	lw	ra,12(sp)
8000208c:	00040513          	mv	a0,s0
80002090:	00812403          	lw	s0,8(sp)
80002094:	01010113          	addi	sp,sp,16
80002098:	00008067          	ret
8000209c:	0ff5f593          	zext.b	a1,a1
800020a0:	00859693          	slli	a3,a1,0x8
800020a4:	00b686b3          	add	a3,a3,a1
800020a8:	01069793          	slli	a5,a3,0x10
800020ac:	00f686b3          	add	a3,a3,a5
800020b0:	fce57ce3          	bgeu	a0,a4,80002088 <memset+0x2c>
800020b4:	00050793          	mv	a5,a0
800020b8:	00478793          	addi	a5,a5,4
800020bc:	fed7ae23          	sw	a3,-4(a5)
800020c0:	fee7ece3          	bltu	a5,a4,800020b8 <memset+0x5c>
800020c4:	00c12083          	lw	ra,12(sp)
800020c8:	00040513          	mv	a0,s0
800020cc:	00812403          	lw	s0,8(sp)
800020d0:	01010113          	addi	sp,sp,16
800020d4:	00008067          	ret

800020d8 <strlen>:
800020d8:	00054783          	lbu	a5,0(a0)
800020dc:	00078e63          	beqz	a5,800020f8 <strlen+0x20>
800020e0:	00050793          	mv	a5,a0
800020e4:	0017c703          	lbu	a4,1(a5)
800020e8:	00178793          	addi	a5,a5,1
800020ec:	fe071ce3          	bnez	a4,800020e4 <strlen+0xc>
800020f0:	40a78533          	sub	a0,a5,a0
800020f4:	00008067          	ret
800020f8:	00000513          	li	a0,0
800020fc:	00008067          	ret

80002100 <strcmp>:
80002100:	00054783          	lbu	a5,0(a0)
80002104:	00158593          	addi	a1,a1,1
80002108:	00150513          	addi	a0,a0,1
8000210c:	fff5c703          	lbu	a4,-1(a1)
80002110:	00078863          	beqz	a5,80002120 <strcmp+0x20>
80002114:	fee786e3          	beq	a5,a4,80002100 <strcmp>
80002118:	40e78533          	sub	a0,a5,a4
8000211c:	00008067          	ret
80002120:	00000793          	li	a5,0
80002124:	ff5ff06f          	j	80002118 <strcmp+0x18>

80002128 <memcmp>:
80002128:	00b567b3          	or	a5,a0,a1
8000212c:	0037f793          	andi	a5,a5,3
80002130:	02079e63          	bnez	a5,8000216c <memcmp+0x44>
80002134:	ffc67813          	andi	a6,a2,-4
80002138:	01050833          	add	a6,a0,a6
8000213c:	03057863          	bgeu	a0,a6,8000216c <memcmp+0x44>
80002140:	00050793          	mv	a5,a0
80002144:	0100006f          	j	80002154 <memcmp+0x2c>
80002148:	00478793          	addi	a5,a5,4
8000214c:	00458593          	addi	a1,a1,4
80002150:	0107f863          	bgeu	a5,a6,80002160 <memcmp+0x38>
80002154:	0007a683          	lw	a3,0(a5)
80002158:	0005a703          	lw	a4,0(a1)
8000215c:	fee686e3          	beq	a3,a4,80002148 <memcmp+0x20>
80002160:	40a78533          	sub	a0,a5,a0
80002164:	40a60633          	sub	a2,a2,a0
80002168:	00078513          	mv	a0,a5
8000216c:	00c58633          	add	a2,a1,a2
80002170:	0140006f          	j	80002184 <memcmp+0x5c>
80002174:	0005c703          	lbu	a4,0(a1)
80002178:	fff54783          	lbu	a5,-1(a0)
8000217c:	00158593          	addi	a1,a1,1
80002180:	00e79a63          	bne	a5,a4,80002194 <memcmp+0x6c>
80002184:	00150513          	addi	a0,a0,1
80002188:	fec596e3          	bne	a1,a2,80002174 <memcmp+0x4c>
8000218c:	00000513          	li	a0,0
80002190:	00008067          	ret
80002194:	40e78533          	sub	a0,a5,a4
80002198:	00008067          	ret

8000219c <strcpy>:
8000219c:	00050793          	mv	a5,a0
800021a0:	0005c703          	lbu	a4,0(a1)
800021a4:	00178793          	addi	a5,a5,1
800021a8:	00158593          	addi	a1,a1,1
800021ac:	fee78fa3          	sb	a4,-1(a5)
800021b0:	fe0718e3          	bnez	a4,800021a0 <strcpy+0x4>
800021b4:	00008067          	ret

800021b8 <atol>:
800021b8:	00054703          	lbu	a4,0(a0)
800021bc:	02000693          	li	a3,32
800021c0:	00050793          	mv	a5,a0
800021c4:	00d71863          	bne	a4,a3,800021d4 <atol+0x1c>
800021c8:	0017c703          	lbu	a4,1(a5)
800021cc:	00178793          	addi	a5,a5,1
800021d0:	fed70ce3          	beq	a4,a3,800021c8 <atol+0x10>
800021d4:	02d00693          	li	a3,45
800021d8:	04d70a63          	beq	a4,a3,8000222c <atol+0x74>
800021dc:	02b00693          	li	a3,43
800021e0:	02d70c63          	beq	a4,a3,80002218 <atol+0x60>
800021e4:	0007c703          	lbu	a4,0(a5)
800021e8:	00000613          	li	a2,0
800021ec:	04070863          	beqz	a4,8000223c <atol+0x84>
800021f0:	00000513          	li	a0,0
800021f4:	00178793          	addi	a5,a5,1
800021f8:	fd070693          	addi	a3,a4,-48
800021fc:	0007c703          	lbu	a4,0(a5)
80002200:	20a54533          	sh2add	a0,a0,a0
80002204:	20d52533          	sh1add	a0,a0,a3
80002208:	fe0716e3          	bnez	a4,800021f4 <atol+0x3c>
8000220c:	02060a63          	beqz	a2,80002240 <atol+0x88>
80002210:	40a00533          	neg	a0,a0
80002214:	00008067          	ret
80002218:	0017c703          	lbu	a4,1(a5)
8000221c:	00178793          	addi	a5,a5,1
80002220:	00070e63          	beqz	a4,8000223c <atol+0x84>
80002224:	00000613          	li	a2,0
80002228:	fc9ff06f          	j	800021f0 <atol+0x38>
8000222c:	0017c703          	lbu	a4,1(a5)
80002230:	00100613          	li	a2,1
80002234:	00178793          	addi	a5,a5,1
80002238:	fa071ce3          	bnez	a4,800021f0 <atol+0x38>
8000223c:	00000513          	li	a0,0
80002240:	00008067          	ret

80002244 <cputstring>:
80002244:	00054583          	lbu	a1,0(a0)
80002248:	06058063          	beqz	a1,800022a8 <cputstring+0x64>
8000224c:	fffff697          	auipc	a3,0xfffff
80002250:	db468693          	addi	a3,a3,-588 # 80001000 <tohost>
80002254:	fffff617          	auipc	a2,0xfffff
80002258:	dec60613          	addi	a2,a2,-532 # 80001040 <fromhost>
8000225c:	0006a703          	lw	a4,0(a3)
80002260:	0046a783          	lw	a5,4(a3)
80002264:	00058813          	mv	a6,a1
80002268:	00150513          	addi	a0,a0,1
8000226c:	00f76733          	or	a4,a4,a5
80002270:	010108b7          	lui	a7,0x1010
80002274:	02070263          	beqz	a4,80002298 <cputstring+0x54>
80002278:	00000713          	li	a4,0
8000227c:	00e62023          	sw	a4,0(a2)
80002280:	00000793          	li	a5,0
80002284:	00f62223          	sw	a5,4(a2)
80002288:	0006a703          	lw	a4,0(a3)
8000228c:	0046a783          	lw	a5,4(a3)
80002290:	00f76733          	or	a4,a4,a5
80002294:	fe0712e3          	bnez	a4,80002278 <cputstring+0x34>
80002298:	0106a023          	sw	a6,0(a3)
8000229c:	0116a223          	sw	a7,4(a3)
800022a0:	00054583          	lbu	a1,0(a0)
800022a4:	fa059ce3          	bnez	a1,8000225c <cputstring+0x18>
800022a8:	00008067          	ret

800022ac <terminate>:
800022ac:	fffff697          	auipc	a3,0xfffff
800022b0:	d5468693          	addi	a3,a3,-684 # 80001000 <tohost>
800022b4:	0006a703          	lw	a4,0(a3)
800022b8:	0046a783          	lw	a5,4(a3)
800022bc:	00050813          	mv	a6,a0
800022c0:	41f55893          	srai	a7,a0,0x1f
800022c4:	00f76733          	or	a4,a4,a5
800022c8:	02070663          	beqz	a4,800022f4 <terminate+0x48>
800022cc:	fffff617          	auipc	a2,0xfffff
800022d0:	d7460613          	addi	a2,a2,-652 # 80001040 <fromhost>
800022d4:	00000713          	li	a4,0
800022d8:	00e62023          	sw	a4,0(a2)
800022dc:	00000793          	li	a5,0
800022e0:	00f62223          	sw	a5,4(a2)
800022e4:	0006a703          	lw	a4,0(a3)
800022e8:	0046a783          	lw	a5,4(a3)
800022ec:	00f76733          	or	a4,a4,a5
800022f0:	fe0712e3          	bnez	a4,800022d4 <terminate+0x28>
800022f4:	0106a023          	sw	a6,0(a3)
800022f8:	0116a223          	sw	a7,4(a3)
800022fc:	0000006f          	j	800022fc <terminate+0x50>

80002300 <wtf>:
80002300:	ff010113          	addi	sp,sp,-16
80002304:	34900513          	li	a0,841
80002308:	00112623          	sw	ra,12(sp)
8000230c:	fa1ff0ef          	jal	800022ac <terminate>

80002310 <printhex>:
80002310:	fe010113          	addi	sp,sp,-32
80002314:	00c10693          	addi	a3,sp,12
80002318:	01b10713          	addi	a4,sp,27
8000231c:	00900313          	li	t1,9
80002320:	0080006f          	j	80002328 <printhex+0x18>
80002324:	00078713          	mv	a4,a5
80002328:	00f57793          	andi	a5,a0,15
8000232c:	00f337b3          	sltu	a5,t1,a5
80002330:	40f007b3          	neg	a5,a5
80002334:	0277f793          	andi	a5,a5,39
80002338:	00f57613          	andi	a2,a0,15
8000233c:	03078793          	addi	a5,a5,48
80002340:	00c787b3          	add	a5,a5,a2
80002344:	00f70023          	sb	a5,0(a4)
80002348:	01c59613          	slli	a2,a1,0x1c
8000234c:	00455513          	srli	a0,a0,0x4
80002350:	fff70793          	addi	a5,a4,-1
80002354:	00a66533          	or	a0,a2,a0
80002358:	0045d593          	srli	a1,a1,0x4
8000235c:	fce694e3          	bne	a3,a4,80002324 <printhex+0x14>
80002360:	00c14503          	lbu	a0,12(sp)
80002364:	00010e23          	sb	zero,28(sp)
80002368:	06050263          	beqz	a0,800023cc <printhex+0xbc>
8000236c:	00068593          	mv	a1,a3
80002370:	fffff617          	auipc	a2,0xfffff
80002374:	cd060613          	addi	a2,a2,-816 # 80001040 <fromhost>
80002378:	fffff697          	auipc	a3,0xfffff
8000237c:	c8868693          	addi	a3,a3,-888 # 80001000 <tohost>
80002380:	0006a703          	lw	a4,0(a3)
80002384:	0046a783          	lw	a5,4(a3)
80002388:	00050813          	mv	a6,a0
8000238c:	00158593          	addi	a1,a1,1
80002390:	00f76733          	or	a4,a4,a5
80002394:	010108b7          	lui	a7,0x1010
80002398:	02070263          	beqz	a4,800023bc <printhex+0xac>
8000239c:	00000713          	li	a4,0
800023a0:	00e62023          	sw	a4,0(a2)
800023a4:	00000793          	li	a5,0
800023a8:	00f62223          	sw	a5,4(a2)
800023ac:	0006a703          	lw	a4,0(a3)
800023b0:	0046a783          	lw	a5,4(a3)
800023b4:	00f76733          	or	a4,a4,a5
800023b8:	fe0712e3          	bnez	a4,8000239c <printhex+0x8c>
800023bc:	0005c503          	lbu	a0,0(a1)
800023c0:	0106a023          	sw	a6,0(a3)
800023c4:	0116a223          	sw	a7,4(a3)
800023c8:	fa051ce3          	bnez	a0,80002380 <printhex+0x70>
800023cc:	02010113          	addi	sp,sp,32
800023d0:	00008067          	ret

800023d4 <handle_fault>:
800023d4:	fd010113          	addi	sp,sp,-48
800023d8:	00100793          	li	a5,1
800023dc:	fffff737          	lui	a4,0xfffff
800023e0:	00f12623          	sw	a5,12(sp)
800023e4:	02112623          	sw	ra,44(sp)
800023e8:	00012423          	sw	zero,8(sp)
800023ec:	00e506b3          	add	a3,a0,a4
800023f0:	0003e7b7          	lui	a5,0x3e
800023f4:	02812423          	sw	s0,40(sp)
800023f8:	1af6f263          	bgeu	a3,a5,8000259c <handle_fault+0x1c8>
800023fc:	01412c23          	sw	s4,24(sp)
80002400:	00c55a13          	srli	s4,a0,0xc
80002404:	03212023          	sw	s2,32(sp)
80002408:	01312e23          	sw	s3,28(sp)
8000240c:	400a0913          	addi	s2,s4,1024
80002410:	00003997          	auipc	s3,0x3
80002414:	bf098993          	addi	s3,s3,-1040 # 80005000 <pt>
80002418:	213947b3          	sh2add	a5,s2,s3
8000241c:	0007a783          	lw	a5,0(a5) # 3e000 <_start-0x7ffc2000>
80002420:	00e57433          	and	s0,a0,a4
80002424:	10079463          	bnez	a5,8000252c <handle_fault+0x158>
80002428:	00005717          	auipc	a4,0x5
8000242c:	bdc70713          	addi	a4,a4,-1060 # 80007004 <freelist_head>
80002430:	01512a23          	sw	s5,20(sp)
80002434:	00072a83          	lw	s5,0(a4)
80002438:	02912223          	sw	s1,36(sp)
8000243c:	1a0a8263          	beqz	s5,800025e0 <handle_fault+0x20c>
80002440:	004aa783          	lw	a5,4(s5)
80002444:	00005697          	auipc	a3,0x5
80002448:	bbc6a683          	lw	a3,-1092(a3) # 80007000 <freelist_tail>
8000244c:	00f72023          	sw	a5,0(a4)
80002450:	14d78063          	beq	a5,a3,80002590 <handle_fault+0x1bc>
80002454:	00c10613          	addi	a2,sp,12
80002458:	00810593          	addi	a1,sp,8
8000245c:	00040513          	mv	a0,s0
80002460:	000aa483          	lw	s1,0(s5)
80002464:	690000ef          	jal	80002af4 <pf_filter>
80002468:	10051463          	bnez	a0,80002570 <handle_fault+0x19c>
8000246c:	00c4d693          	srli	a3,s1,0xc
80002470:	00a69693          	slli	a3,a3,0xa
80002474:	01f6e693          	ori	a3,a3,31
80002478:	0c06e793          	ori	a5,a3,192
8000247c:	21394733          	sh2add	a4,s2,s3
80002480:	00f72023          	sw	a5,0(a4)
80002484:	12040073          	sfence.vma	s0
80002488:	00002797          	auipc	a5,0x2
8000248c:	b7878793          	addi	a5,a5,-1160 # 80004000 <user_mapping>
80002490:	20fa6a33          	sh3add	s4,s4,a5
80002494:	000a2783          	lw	a5,0(s4)
80002498:	14079e63          	bnez	a5,800025f4 <handle_fault+0x220>
8000249c:	000aa783          	lw	a5,0(s5)
800024a0:	000405b7          	lui	a1,0x40
800024a4:	00fa2023          	sw	a5,0(s4)
800024a8:	004aa783          	lw	a5,4(s5)
800024ac:	00fa2223          	sw	a5,4(s4)
800024b0:	1005a5f3          	csrrs	a1,sstatus,a1
800024b4:	ffc007b7          	lui	a5,0xffc00
800024b8:	00f407b3          	add	a5,s0,a5
800024bc:	00001637          	lui	a2,0x1
800024c0:	00040713          	mv	a4,s0
800024c4:	00c78633          	add	a2,a5,a2
800024c8:	0007a303          	lw	t1,0(a5) # ffc00000 <freelist_head+0x7fbf8ffc>
800024cc:	0047a883          	lw	a7,4(a5)
800024d0:	0087a803          	lw	a6,8(a5)
800024d4:	00c7a503          	lw	a0,12(a5)
800024d8:	00672023          	sw	t1,0(a4)
800024dc:	01172223          	sw	a7,4(a4)
800024e0:	01072423          	sw	a6,8(a4)
800024e4:	00a72623          	sw	a0,12(a4)
800024e8:	01078793          	addi	a5,a5,16
800024ec:	01070713          	addi	a4,a4,16
800024f0:	fcc79ce3          	bne	a5,a2,800024c8 <handle_fault+0xf4>
800024f4:	10059073          	csrw	sstatus,a1
800024f8:	21394933          	sh2add	s2,s2,s3
800024fc:	00d92023          	sw	a3,0(s2)
80002500:	12040073          	sfence.vma	s0
80002504:	0000100f          	fence.i
80002508:	02812403          	lw	s0,40(sp)
8000250c:	02c12083          	lw	ra,44(sp)
80002510:	02412483          	lw	s1,36(sp)
80002514:	01412a83          	lw	s5,20(sp)
80002518:	02012903          	lw	s2,32(sp)
8000251c:	01c12983          	lw	s3,28(sp)
80002520:	01812a03          	lw	s4,24(sp)
80002524:	03010113          	addi	sp,sp,48
80002528:	00008067          	ret
8000252c:	0407f713          	andi	a4,a5,64
80002530:	04070c63          	beqz	a4,80002588 <handle_fault+0x1b4>
80002534:	0807f713          	andi	a4,a5,128
80002538:	08071663          	bnez	a4,800025c4 <handle_fault+0x1f0>
8000253c:	00f00713          	li	a4,15
80002540:	0807e793          	ori	a5,a5,128
80002544:	08e59063          	bne	a1,a4,800025c4 <handle_fault+0x1f0>
80002548:	213949b3          	sh2add	s3,s2,s3
8000254c:	00f9a023          	sw	a5,0(s3)
80002550:	12040073          	sfence.vma	s0
80002554:	02812403          	lw	s0,40(sp)
80002558:	02c12083          	lw	ra,44(sp)
8000255c:	02012903          	lw	s2,32(sp)
80002560:	01c12983          	lw	s3,28(sp)
80002564:	01812a03          	lw	s4,24(sp)
80002568:	03010113          	addi	sp,sp,48
8000256c:	00008067          	ret
80002570:	000aa683          	lw	a3,0(s5)
80002574:	00812783          	lw	a5,8(sp)
80002578:	00c6d693          	srli	a3,a3,0xc
8000257c:	00a69693          	slli	a3,a3,0xa
80002580:	00f6e6b3          	or	a3,a3,a5
80002584:	ef5ff06f          	j	80002478 <handle_fault+0xa4>
80002588:	0407e793          	ori	a5,a5,64
8000258c:	fbdff06f          	j	80002548 <handle_fault+0x174>
80002590:	00005797          	auipc	a5,0x5
80002594:	a607a823          	sw	zero,-1424(a5) # 80007000 <freelist_tail>
80002598:	ebdff06f          	j	80002454 <handle_fault+0x80>
8000259c:	00001517          	auipc	a0,0x1
800025a0:	a5c50513          	addi	a0,a0,-1444 # 80002ff8 <pass+0xc>
800025a4:	02912223          	sw	s1,36(sp)
800025a8:	03212023          	sw	s2,32(sp)
800025ac:	01312e23          	sw	s3,28(sp)
800025b0:	01412c23          	sw	s4,24(sp)
800025b4:	01512a23          	sw	s5,20(sp)
800025b8:	c8dff0ef          	jal	80002244 <cputstring>
800025bc:	00300513          	li	a0,3
800025c0:	cedff0ef          	jal	800022ac <terminate>
800025c4:	00001517          	auipc	a0,0x1
800025c8:	a7850513          	addi	a0,a0,-1416 # 8000303c <pass+0x50>
800025cc:	02912223          	sw	s1,36(sp)
800025d0:	01512a23          	sw	s5,20(sp)
800025d4:	c71ff0ef          	jal	80002244 <cputstring>
800025d8:	00300513          	li	a0,3
800025dc:	cd1ff0ef          	jal	800022ac <terminate>
800025e0:	00001517          	auipc	a0,0x1
800025e4:	aa450513          	addi	a0,a0,-1372 # 80003084 <pass+0x98>
800025e8:	c5dff0ef          	jal	80002244 <cputstring>
800025ec:	00300513          	li	a0,3
800025f0:	cbdff0ef          	jal	800022ac <terminate>
800025f4:	00001517          	auipc	a0,0x1
800025f8:	aa850513          	addi	a0,a0,-1368 # 8000309c <pass+0xb0>
800025fc:	c49ff0ef          	jal	80002244 <cputstring>
80002600:	00300513          	li	a0,3
80002604:	ca9ff0ef          	jal	800022ac <terminate>

80002608 <handle_trap>:
80002608:	fb010113          	addi	sp,sp,-80
8000260c:	04812423          	sw	s0,72(sp)
80002610:	04112623          	sw	ra,76(sp)
80002614:	00050413          	mv	s0,a0
80002618:	4d4000ef          	jal	80002aec <trap_filter>
8000261c:	10051263          	bnez	a0,80002720 <handle_trap+0x118>
80002620:	08c42583          	lw	a1,140(s0)
80002624:	00800793          	li	a5,8
80002628:	14f58663          	beq	a1,a5,80002774 <handle_trap+0x16c>
8000262c:	00200793          	li	a5,2
80002630:	02f58a63          	beq	a1,a5,80002664 <handle_trap+0x5c>
80002634:	ff458793          	addi	a5,a1,-12 # 3fff4 <_start-0x7ffc000c>
80002638:	00100713          	li	a4,1
8000263c:	00f77663          	bgeu	a4,a5,80002648 <handle_trap+0x40>
80002640:	00f00793          	li	a5,15
80002644:	26f59663          	bne	a1,a5,800028b0 <handle_trap+0x2a8>
80002648:	08842503          	lw	a0,136(s0)
8000264c:	d89ff0ef          	jal	800023d4 <handle_fault>
80002650:	00040513          	mv	a0,s0
80002654:	04812403          	lw	s0,72(sp)
80002658:	04c12083          	lw	ra,76(sp)
8000265c:	05010113          	addi	sp,sp,80
80002660:	a6dfd06f          	j	800000cc <pop_tf>
80002664:	08442703          	lw	a4,132(s0)
80002668:	00377793          	andi	a5,a4,3
8000266c:	0c079463          	bnez	a5,80002734 <handle_trap+0x12c>
80002670:	00072703          	lw	a4,0(a4)
80002674:	008007ef          	jal	a5,8000267c <handle_trap+0x74>
80002678:	00301073          	fscsr	zero
8000267c:	0007a783          	lw	a5,0(a5)
80002680:	04912223          	sw	s1,68(sp)
80002684:	05212023          	sw	s2,64(sp)
80002688:	03312e23          	sw	s3,60(sp)
8000268c:	03412c23          	sw	s4,56(sp)
80002690:	03512a23          	sw	s5,52(sp)
80002694:	03612823          	sw	s6,48(sp)
80002698:	03712623          	sw	s7,44(sp)
8000269c:	03812423          	sw	s8,40(sp)
800026a0:	03912223          	sw	s9,36(sp)
800026a4:	03a12023          	sw	s10,32(sp)
800026a8:	01b12e23          	sw	s11,28(sp)
800026ac:	08f70063          	beq	a4,a5,8000272c <handle_trap+0x124>
800026b0:	04100513          	li	a0,65
800026b4:	00001597          	auipc	a1,0x1
800026b8:	a2458593          	addi	a1,a1,-1500 # 800030d8 <pass+0xec>
800026bc:	fffff697          	auipc	a3,0xfffff
800026c0:	94468693          	addi	a3,a3,-1724 # 80001000 <tohost>
800026c4:	fffff617          	auipc	a2,0xfffff
800026c8:	97c60613          	addi	a2,a2,-1668 # 80001040 <fromhost>
800026cc:	0006a703          	lw	a4,0(a3)
800026d0:	0046a783          	lw	a5,4(a3)
800026d4:	00050913          	mv	s2,a0
800026d8:	00158593          	addi	a1,a1,1
800026dc:	00f76733          	or	a4,a4,a5
800026e0:	010109b7          	lui	s3,0x1010
800026e4:	02070263          	beqz	a4,80002708 <handle_trap+0x100>
800026e8:	00000793          	li	a5,0
800026ec:	00f62023          	sw	a5,0(a2)
800026f0:	00000813          	li	a6,0
800026f4:	01062223          	sw	a6,4(a2)
800026f8:	0006a703          	lw	a4,0(a3)
800026fc:	0046a783          	lw	a5,4(a3)
80002700:	00f76733          	or	a4,a4,a5
80002704:	fe0712e3          	bnez	a4,800026e8 <handle_trap+0xe0>
80002708:	0005c503          	lbu	a0,0(a1)
8000270c:	0126a023          	sw	s2,0(a3)
80002710:	0136a223          	sw	s3,4(a3)
80002714:	fa051ce3          	bnez	a0,800026cc <handle_trap+0xc4>
80002718:	00300513          	li	a0,3
8000271c:	b91ff0ef          	jal	800022ac <terminate>
80002720:	00040513          	mv	a0,s0
80002724:	9a9fd0ef          	jal	800000cc <pop_tf>
80002728:	ef9ff06f          	j	80002620 <handle_trap+0x18>
8000272c:	00100513          	li	a0,1
80002730:	b7dff0ef          	jal	800022ac <terminate>
80002734:	00001517          	auipc	a0,0x1
80002738:	a3850513          	addi	a0,a0,-1480 # 8000316c <pass+0x180>
8000273c:	04912223          	sw	s1,68(sp)
80002740:	05212023          	sw	s2,64(sp)
80002744:	03312e23          	sw	s3,60(sp)
80002748:	03412c23          	sw	s4,56(sp)
8000274c:	03512a23          	sw	s5,52(sp)
80002750:	03612823          	sw	s6,48(sp)
80002754:	03712623          	sw	s7,44(sp)
80002758:	03812423          	sw	s8,40(sp)
8000275c:	03912223          	sw	s9,36(sp)
80002760:	03a12023          	sw	s10,32(sp)
80002764:	01b12e23          	sw	s11,28(sp)
80002768:	addff0ef          	jal	80002244 <cputstring>
8000276c:	00300513          	li	a0,3
80002770:	b3dff0ef          	jal	800022ac <terminate>
80002774:	02842783          	lw	a5,40(s0)
80002778:	05212023          	sw	s2,64(sp)
8000277c:	03412c23          	sw	s4,56(sp)
80002780:	03512a23          	sw	s5,52(sp)
80002784:	03612823          	sw	s6,48(sp)
80002788:	03712623          	sw	s7,44(sp)
8000278c:	03812423          	sw	s8,40(sp)
80002790:	03912223          	sw	s9,36(sp)
80002794:	03a12023          	sw	s10,32(sp)
80002798:	04912223          	sw	s1,68(sp)
8000279c:	03312e23          	sw	s3,60(sp)
800027a0:	01b12e23          	sw	s11,28(sp)
800027a4:	00f12623          	sw	a5,12(sp)
800027a8:	00001937          	lui	s2,0x1
800027ac:	00002a97          	auipc	s5,0x2
800027b0:	854a8a93          	addi	s5,s5,-1964 # 80004000 <user_mapping>
800027b4:	00003d17          	auipc	s10,0x3
800027b8:	84cd0d13          	addi	s10,s10,-1972 # 80005000 <pt>
800027bc:	00040cb7          	lui	s9,0x40
800027c0:	ffc00c37          	lui	s8,0xffc00
800027c4:	00005a17          	auipc	s4,0x5
800027c8:	83ca0a13          	addi	s4,s4,-1988 # 80007000 <freelist_tail>
800027cc:	00005b97          	auipc	s7,0x5
800027d0:	838b8b93          	addi	s7,s7,-1992 # 80007004 <freelist_head>
800027d4:	0003fb37          	lui	s6,0x3f
800027d8:	00c95793          	srli	a5,s2,0xc
800027dc:	2157e733          	sh3add	a4,a5,s5
800027e0:	00072703          	lw	a4,0(a4)
800027e4:	00379993          	slli	s3,a5,0x3
800027e8:	08070a63          	beqz	a4,8000287c <handle_trap+0x274>
800027ec:	40078793          	addi	a5,a5,1024
800027f0:	21a7c7b3          	sh2add	a5,a5,s10
800027f4:	0007a483          	lw	s1,0(a5)
800027f8:	0404f793          	andi	a5,s1,64
800027fc:	0a078063          	beqz	a5,8000289c <handle_trap+0x294>
80002800:	100cadf3          	csrrs	s11,sstatus,s9
80002804:	01890433          	add	s0,s2,s8
80002808:	00001637          	lui	a2,0x1
8000280c:	00040593          	mv	a1,s0
80002810:	00090513          	mv	a0,s2
80002814:	915ff0ef          	jal	80002128 <memcmp>
80002818:	04050463          	beqz	a0,80002860 <handle_trap+0x258>
8000281c:	0804f493          	andi	s1,s1,128
80002820:	0c048663          	beqz	s1,800028ec <handle_trap+0x2e4>
80002824:	000016b7          	lui	a3,0x1
80002828:	00090713          	mv	a4,s2
8000282c:	00040793          	mv	a5,s0
80002830:	00d906b3          	add	a3,s2,a3
80002834:	00072803          	lw	a6,0(a4)
80002838:	00472503          	lw	a0,4(a4)
8000283c:	00872583          	lw	a1,8(a4)
80002840:	00c72603          	lw	a2,12(a4)
80002844:	0107a023          	sw	a6,0(a5)
80002848:	00a7a223          	sw	a0,4(a5)
8000284c:	00b7a423          	sw	a1,8(a5)
80002850:	00c7a623          	sw	a2,12(a5)
80002854:	01070713          	addi	a4,a4,16
80002858:	01078793          	addi	a5,a5,16
8000285c:	fcd71ce3          	bne	a4,a3,80002834 <handle_trap+0x22c>
80002860:	013a87b3          	add	a5,s5,s3
80002864:	100d9073          	csrw	sstatus,s11
80002868:	000a2703          	lw	a4,0(s4)
8000286c:	0007a023          	sw	zero,0(a5)
80002870:	02070063          	beqz	a4,80002890 <handle_trap+0x288>
80002874:	00f72223          	sw	a5,4(a4)
80002878:	00fa2023          	sw	a5,0(s4)
8000287c:	000017b7          	lui	a5,0x1
80002880:	00f90933          	add	s2,s2,a5
80002884:	f5691ae3          	bne	s2,s6,800027d8 <handle_trap+0x1d0>
80002888:	00c12503          	lw	a0,12(sp)
8000288c:	a21ff0ef          	jal	800022ac <terminate>
80002890:	00fa2023          	sw	a5,0(s4)
80002894:	00fba023          	sw	a5,0(s7)
80002898:	fe5ff06f          	j	8000287c <handle_trap+0x274>
8000289c:	00001517          	auipc	a0,0x1
800028a0:	86850513          	addi	a0,a0,-1944 # 80003104 <pass+0x118>
800028a4:	9a1ff0ef          	jal	80002244 <cputstring>
800028a8:	00300513          	li	a0,3
800028ac:	a01ff0ef          	jal	800022ac <terminate>
800028b0:	00001517          	auipc	a0,0x1
800028b4:	8e050513          	addi	a0,a0,-1824 # 80003190 <pass+0x1a4>
800028b8:	04912223          	sw	s1,68(sp)
800028bc:	05212023          	sw	s2,64(sp)
800028c0:	03312e23          	sw	s3,60(sp)
800028c4:	03412c23          	sw	s4,56(sp)
800028c8:	03512a23          	sw	s5,52(sp)
800028cc:	03612823          	sw	s6,48(sp)
800028d0:	03712623          	sw	s7,44(sp)
800028d4:	03812423          	sw	s8,40(sp)
800028d8:	03912223          	sw	s9,36(sp)
800028dc:	03a12023          	sw	s10,32(sp)
800028e0:	01b12e23          	sw	s11,28(sp)
800028e4:	961ff0ef          	jal	80002244 <cputstring>
800028e8:	e31ff06f          	j	80002718 <handle_trap+0x110>
800028ec:	00001517          	auipc	a0,0x1
800028f0:	84c50513          	addi	a0,a0,-1972 # 80003138 <pass+0x14c>
800028f4:	951ff0ef          	jal	80002244 <cputstring>
800028f8:	00300513          	li	a0,3
800028fc:	9b1ff0ef          	jal	800022ac <terminate>

80002900 <vm_boot>:
80002900:	f14027f3          	csrr	a5,mhartid
80002904:	16079863          	bnez	a5,80002a74 <vm_boot+0x174>
80002908:	00003597          	auipc	a1,0x3
8000290c:	6f858593          	addi	a1,a1,1784 # 80006000 <pt+0x1000>
80002910:	f6010113          	addi	sp,sp,-160
80002914:	00c5d793          	srli	a5,a1,0xc
80002918:	08812c23          	sw	s0,152(sp)
8000291c:	00a79793          	slli	a5,a5,0xa
80002920:	00050413          	mv	s0,a0
80002924:	20000637          	lui	a2,0x20000
80002928:	00002517          	auipc	a0,0x2
8000292c:	6d850513          	addi	a0,a0,1752 # 80005000 <pt>
80002930:	08112e23          	sw	ra,156(sp)
80002934:	0017e793          	ori	a5,a5,1
80002938:	0cf60613          	addi	a2,a2,207 # 200000cf <_start-0x5fffff31>
8000293c:	00c55693          	srli	a3,a0,0xc
80002940:	80000737          	lui	a4,0x80000
80002944:	00f52023          	sw	a5,0(a0)
80002948:	fec5ae23          	sw	a2,-4(a1)
8000294c:	00e6e7b3          	or	a5,a3,a4
80002950:	18079073          	csrw	satp,a5
80002954:	180026f3          	csrr	a3,satp
80002958:	16d79e63          	bne	a5,a3,80002ad4 <vm_boot+0x1d4>
8000295c:	fff70713          	addi	a4,a4,-1 # 7fffffff <_start-0x1>
80002960:	01f00793          	li	a5,31
80002964:	00000297          	auipc	t0,0x0
80002968:	01428293          	addi	t0,t0,20 # 80002978 <vm_boot+0x78>
8000296c:	305292f3          	csrrw	t0,mtvec,t0
80002970:	3b071073          	csrw	pmpaddr0,a4
80002974:	3a079073          	csrw	pmpcfg0,a5
80002978:	30529073          	csrw	mtvec,t0
8000297c:	7fbfd797          	auipc	a5,0x7fbfd
80002980:	7d878793          	addi	a5,a5,2008 # ffc00154 <freelist_head+0x7fbf9150>
80002984:	10579073          	csrw	stvec,a5
80002988:	340027f3          	csrr	a5,mscratch
8000298c:	7fc00737          	lui	a4,0x7fc00
80002990:	00e787b3          	add	a5,a5,a4
80002994:	14079073          	csrw	sscratch,a5
80002998:	0000b7b7          	lui	a5,0xb
8000299c:	10078793          	addi	a5,a5,256 # b100 <_start-0x7fff4f00>
800029a0:	30279073          	csrw	medeleg,a5
800029a4:	0001e7b7          	lui	a5,0x1e
800029a8:	60078793          	addi	a5,a5,1536 # 1e600 <_start-0x7ffe1a00>
800029ac:	30079073          	csrw	mstatus,a5
800029b0:	30405073          	csrwi	mie,0
800029b4:	7fc02797          	auipc	a5,0x7fc02
800029b8:	84478793          	addi	a5,a5,-1980 # ffc041f8 <freelist_head+0x7fbfd1f4>
800029bc:	00004717          	auipc	a4,0x4
800029c0:	64f72423          	sw	a5,1608(a4) # 80007004 <freelist_head>
800029c4:	7fc02797          	auipc	a5,0x7fc02
800029c8:	a2478793          	addi	a5,a5,-1500 # ffc043e8 <freelist_head+0x7fbfd3e4>
800029cc:	00004717          	auipc	a4,0x4
800029d0:	62f72a23          	sw	a5,1588(a4) # 80007000 <freelist_tail>
800029d4:	00080337          	lui	t1,0x80
800029d8:	7fc008b7          	lui	a7,0x7fc00
800029dc:	00002717          	auipc	a4,0x2
800029e0:	81c70713          	addi	a4,a4,-2020 # 800041f8 <freelist_nodes>
800029e4:	00002e17          	auipc	t3,0x2
800029e8:	a0ce0e13          	addi	t3,t3,-1524 # 800043f0 <freelist_nodes+0x1f8>
800029ec:	02c00793          	li	a5,44
800029f0:	00000593          	li	a1,0
800029f4:	03f30313          	addi	t1,t1,63 # 8003f <_start-0x7ff7ffc1>
800029f8:	00888893          	addi	a7,a7,8 # 7fc00008 <_start-0x3ffff8>
800029fc:	01f59613          	slli	a2,a1,0x1f
80002a00:	0017d693          	srli	a3,a5,0x1
80002a04:	00d666b3          	or	a3,a2,a3
80002a08:	00678633          	add	a2,a5,t1
80002a0c:	00f6c7b3          	xor	a5,a3,a5
80002a10:	01170833          	add	a6,a4,a7
80002a14:	00c61613          	slli	a2,a2,0xc
80002a18:	00579793          	slli	a5,a5,0x5
80002a1c:	00c72023          	sw	a2,0(a4)
80002a20:	01072223          	sw	a6,4(a4)
80002a24:	0207f793          	andi	a5,a5,32
80002a28:	00870713          	addi	a4,a4,8
80002a2c:	00f6e7b3          	or	a5,a3,a5
80002a30:	0015d593          	srli	a1,a1,0x1
80002a34:	fcee14e3          	bne	t3,a4,800029fc <vm_boot+0xfc>
80002a38:	09000613          	li	a2,144
80002a3c:	00000593          	li	a1,0
80002a40:	00010513          	mv	a0,sp
80002a44:	00002797          	auipc	a5,0x2
80002a48:	9a07a423          	sw	zero,-1624(a5) # 800043ec <freelist_nodes+0x1f4>
80002a4c:	e10ff0ef          	jal	8000205c <memset>
80002a50:	800007b7          	lui	a5,0x80000
80002a54:	00f40433          	add	s0,s0,a5
80002a58:	00010513          	mv	a0,sp
80002a5c:	08812223          	sw	s0,132(sp)
80002a60:	e6cfd0ef          	jal	800000cc <pop_tf>
80002a64:	09c12083          	lw	ra,156(sp)
80002a68:	09812403          	lw	s0,152(sp)
80002a6c:	0a010113          	addi	sp,sp,160
80002a70:	00008067          	ret
80002a74:	070557b7          	lui	a5,0x7055
80002a78:	00080637          	lui	a2,0x80
80002a7c:	82e78793          	addi	a5,a5,-2002 # 705482e <_start-0x78fab7d2>
80002a80:	00000713          	li	a4,0
80002a84:	ffc60613          	addi	a2,a2,-4 # 7fffc <_start-0x7ff80004>
80002a88:	80000837          	lui	a6,0x80000
80002a8c:	40000537          	lui	a0,0x40000
80002a90:	02c0006f          	j	80002abc <vm_boot+0x1bc>
80002a94:	0006a02f          	amoadd.w	zero,zero,(a3)
80002a98:	01f71593          	slli	a1,a4,0x1f
80002a9c:	0017d693          	srli	a3,a5,0x1
80002aa0:	00d5e6b3          	or	a3,a1,a3
80002aa4:	00d7c7b3          	xor	a5,a5,a3
80002aa8:	01e79793          	slli	a5,a5,0x1e
80002aac:	00f575b3          	and	a1,a0,a5
80002ab0:	00175713          	srli	a4,a4,0x1
80002ab4:	00068793          	mv	a5,a3
80002ab8:	00e5e733          	or	a4,a1,a4
80002abc:	00c7f6b3          	and	a3,a5,a2
80002ac0:	0017f593          	andi	a1,a5,1
80002ac4:	010686b3          	add	a3,a3,a6
80002ac8:	fc0596e3          	bnez	a1,80002a94 <vm_boot+0x194>
80002acc:	0006a003          	lw	zero,0(a3) # 1000 <_start-0x7ffff000>
80002ad0:	fc9ff06f          	j	80002a98 <vm_boot+0x198>
80002ad4:	00000517          	auipc	a0,0x0
80002ad8:	6e850513          	addi	a0,a0,1768 # 800031bc <pass+0x1d0>
80002adc:	f68ff0ef          	jal	80002244 <cputstring>
80002ae0:	00300513          	li	a0,3
80002ae4:	fc8ff0ef          	jal	800022ac <terminate>

80002ae8 <extra_boot>:
80002ae8:	00008067          	ret

80002aec <trap_filter>:
80002aec:	00000513          	li	a0,0
80002af0:	00008067          	ret

80002af4 <pf_filter>:
80002af4:	00000513          	li	a0,0
80002af8:	00008067          	ret

80002afc <userstart>:
80002afc:	00200193          	li	gp,2
80002b00:	00000093          	li	ra,0
80002b04:	00000113          	li	sp,0
80002b08:	2020e733          	sh3add	a4,ra,sp
80002b0c:	00000393          	li	t2,0
80002b10:	4c771663          	bne	a4,t2,80002fdc <fail>

80002b14 <test_3>:
80002b14:	00300193          	li	gp,3
80002b18:	00100093          	li	ra,1
80002b1c:	00100113          	li	sp,1
80002b20:	2020e733          	sh3add	a4,ra,sp
80002b24:	00900393          	li	t2,9
80002b28:	4a771a63          	bne	a4,t2,80002fdc <fail>

80002b2c <test_4>:
80002b2c:	00400193          	li	gp,4
80002b30:	00300093          	li	ra,3
80002b34:	00700113          	li	sp,7
80002b38:	2020e733          	sh3add	a4,ra,sp
80002b3c:	01f00393          	li	t2,31
80002b40:	48771e63          	bne	a4,t2,80002fdc <fail>

80002b44 <test_5>:
80002b44:	00500193          	li	gp,5
80002b48:	00000093          	li	ra,0
80002b4c:	ffff8137          	lui	sp,0xffff8
80002b50:	2020e733          	sh3add	a4,ra,sp
80002b54:	ffff83b7          	lui	t2,0xffff8
80002b58:	48771263          	bne	a4,t2,80002fdc <fail>

80002b5c <test_6>:
80002b5c:	00600193          	li	gp,6
80002b60:	800000b7          	lui	ra,0x80000
80002b64:	00000113          	li	sp,0
80002b68:	2020e733          	sh3add	a4,ra,sp
80002b6c:	00000393          	li	t2,0
80002b70:	46771663          	bne	a4,t2,80002fdc <fail>

80002b74 <test_7>:
80002b74:	00700193          	li	gp,7
80002b78:	800000b7          	lui	ra,0x80000
80002b7c:	ffff8137          	lui	sp,0xffff8
80002b80:	2020e733          	sh3add	a4,ra,sp
80002b84:	ffff83b7          	lui	t2,0xffff8
80002b88:	44771a63          	bne	a4,t2,80002fdc <fail>

80002b8c <test_8>:
80002b8c:	00800193          	li	gp,8
80002b90:	00000093          	li	ra,0
80002b94:	00008137          	lui	sp,0x8
80002b98:	fff10113          	addi	sp,sp,-1 # 7fff <_start-0x7fff8001>
80002b9c:	2020e733          	sh3add	a4,ra,sp
80002ba0:	000083b7          	lui	t2,0x8
80002ba4:	fff38393          	addi	t2,t2,-1 # 7fff <_start-0x7fff8001>
80002ba8:	42771a63          	bne	a4,t2,80002fdc <fail>

80002bac <test_9>:
80002bac:	00900193          	li	gp,9
80002bb0:	800000b7          	lui	ra,0x80000
80002bb4:	fff08093          	addi	ra,ra,-1 # 7fffffff <_start-0x1>
80002bb8:	00000113          	li	sp,0
80002bbc:	2020e733          	sh3add	a4,ra,sp
80002bc0:	ff800393          	li	t2,-8
80002bc4:	40771c63          	bne	a4,t2,80002fdc <fail>

80002bc8 <test_10>:
80002bc8:	00a00193          	li	gp,10
80002bcc:	800000b7          	lui	ra,0x80000
80002bd0:	fff08093          	addi	ra,ra,-1 # 7fffffff <_start-0x1>
80002bd4:	00008137          	lui	sp,0x8
80002bd8:	fff10113          	addi	sp,sp,-1 # 7fff <_start-0x7fff8001>
80002bdc:	2020e733          	sh3add	a4,ra,sp
80002be0:	000083b7          	lui	t2,0x8
80002be4:	ff738393          	addi	t2,t2,-9 # 7ff7 <_start-0x7fff8009>
80002be8:	3e771a63          	bne	a4,t2,80002fdc <fail>

80002bec <test_11>:
80002bec:	00b00193          	li	gp,11
80002bf0:	800000b7          	lui	ra,0x80000
80002bf4:	00008137          	lui	sp,0x8
80002bf8:	fff10113          	addi	sp,sp,-1 # 7fff <_start-0x7fff8001>
80002bfc:	2020e733          	sh3add	a4,ra,sp
80002c00:	000083b7          	lui	t2,0x8
80002c04:	fff38393          	addi	t2,t2,-1 # 7fff <_start-0x7fff8001>
80002c08:	3c771a63          	bne	a4,t2,80002fdc <fail>

80002c0c <test_12>:
80002c0c:	00c00193          	li	gp,12
80002c10:	800000b7          	lui	ra,0x80000
80002c14:	fff08093          	addi	ra,ra,-1 # 7fffffff <_start-0x1>
80002c18:	ffff8137          	lui	sp,0xffff8
80002c1c:	2020e733          	sh3add	a4,ra,sp
80002c20:	ffff83b7          	lui	t2,0xffff8
80002c24:	ff838393          	addi	t2,t2,-8 # ffff7ff8 <freelist_head+0x7fff0ff4>
80002c28:	3a771a63          	bne	a4,t2,80002fdc <fail>

80002c2c <test_13>:
80002c2c:	00d00193          	li	gp,13
80002c30:	00000093          	li	ra,0
80002c34:	fff00113          	li	sp,-1
80002c38:	2020e733          	sh3add	a4,ra,sp
80002c3c:	fff00393          	li	t2,-1
80002c40:	38771e63          	bne	a4,t2,80002fdc <fail>

80002c44 <test_14>:
80002c44:	00e00193          	li	gp,14
80002c48:	fff00093          	li	ra,-1
80002c4c:	00100113          	li	sp,1
80002c50:	2020e733          	sh3add	a4,ra,sp
80002c54:	ff900393          	li	t2,-7
80002c58:	38771263          	bne	a4,t2,80002fdc <fail>

80002c5c <test_15>:
80002c5c:	00f00193          	li	gp,15
80002c60:	fff00093          	li	ra,-1
80002c64:	fff00113          	li	sp,-1
80002c68:	2020e733          	sh3add	a4,ra,sp
80002c6c:	ff700393          	li	t2,-9
80002c70:	36771663          	bne	a4,t2,80002fdc <fail>

80002c74 <test_16>:
80002c74:	01000193          	li	gp,16
80002c78:	00100093          	li	ra,1
80002c7c:	80000137          	lui	sp,0x80000
80002c80:	fff10113          	addi	sp,sp,-1 # 7fffffff <_start-0x1>
80002c84:	2020e733          	sh3add	a4,ra,sp
80002c88:	800003b7          	lui	t2,0x80000
80002c8c:	00738393          	addi	t2,t2,7 # 80000007 <nmi_vector+0x3>
80002c90:	34771663          	bne	a4,t2,80002fdc <fail>

80002c94 <test_17>:
80002c94:	01100193          	li	gp,17
80002c98:	00d00093          	li	ra,13
80002c9c:	00b00113          	li	sp,11
80002ca0:	2020e0b3          	sh3add	ra,ra,sp
80002ca4:	07300393          	li	t2,115
80002ca8:	32709a63          	bne	ra,t2,80002fdc <fail>

80002cac <test_18>:
80002cac:	01200193          	li	gp,18
80002cb0:	00e00093          	li	ra,14
80002cb4:	00b00113          	li	sp,11
80002cb8:	2020e133          	sh3add	sp,ra,sp
80002cbc:	07b00393          	li	t2,123
80002cc0:	30711e63          	bne	sp,t2,80002fdc <fail>

80002cc4 <test_19>:
80002cc4:	01300193          	li	gp,19
80002cc8:	00d00093          	li	ra,13
80002ccc:	2010e0b3          	sh3add	ra,ra,ra
80002cd0:	07500393          	li	t2,117
80002cd4:	30709463          	bne	ra,t2,80002fdc <fail>

80002cd8 <test_20>:
80002cd8:	01400193          	li	gp,20
80002cdc:	00000213          	li	tp,0
80002ce0:	00d00093          	li	ra,13
80002ce4:	00b00113          	li	sp,11
80002ce8:	2020e733          	sh3add	a4,ra,sp
80002cec:	00070313          	mv	t1,a4
80002cf0:	00120213          	addi	tp,tp,1 # 1 <_start-0x7fffffff>
80002cf4:	00200293          	li	t0,2
80002cf8:	fe5214e3          	bne	tp,t0,80002ce0 <test_20+0x8>
80002cfc:	07300393          	li	t2,115
80002d00:	2c731e63          	bne	t1,t2,80002fdc <fail>

80002d04 <test_21>:
80002d04:	01500193          	li	gp,21
80002d08:	00000213          	li	tp,0
80002d0c:	00e00093          	li	ra,14
80002d10:	00b00113          	li	sp,11
80002d14:	2020e733          	sh3add	a4,ra,sp
80002d18:	00000013          	nop
80002d1c:	00070313          	mv	t1,a4
80002d20:	00120213          	addi	tp,tp,1 # 1 <_start-0x7fffffff>
80002d24:	00200293          	li	t0,2
80002d28:	fe5212e3          	bne	tp,t0,80002d0c <test_21+0x8>
80002d2c:	07b00393          	li	t2,123
80002d30:	2a731663          	bne	t1,t2,80002fdc <fail>

80002d34 <test_22>:
80002d34:	01600193          	li	gp,22
80002d38:	00000213          	li	tp,0
80002d3c:	00f00093          	li	ra,15
80002d40:	00b00113          	li	sp,11
80002d44:	2020e733          	sh3add	a4,ra,sp
80002d48:	00000013          	nop
80002d4c:	00000013          	nop
80002d50:	00070313          	mv	t1,a4
80002d54:	00120213          	addi	tp,tp,1 # 1 <_start-0x7fffffff>
80002d58:	00200293          	li	t0,2
80002d5c:	fe5210e3          	bne	tp,t0,80002d3c <test_22+0x8>
80002d60:	08300393          	li	t2,131
80002d64:	26731c63          	bne	t1,t2,80002fdc <fail>

80002d68 <test_23>:
80002d68:	01700193          	li	gp,23
80002d6c:	00000213          	li	tp,0
80002d70:	00d00093          	li	ra,13
80002d74:	00b00113          	li	sp,11
80002d78:	2020e733          	sh3add	a4,ra,sp
80002d7c:	00120213          	addi	tp,tp,1 # 1 <_start-0x7fffffff>
80002d80:	00200293          	li	t0,2
80002d84:	fe5216e3          	bne	tp,t0,80002d70 <test_23+0x8>
80002d88:	07300393          	li	t2,115
80002d8c:	24771863          	bne	a4,t2,80002fdc <fail>

80002d90 <test_24>:
80002d90:	01800193          	li	gp,24
80002d94:	00000213          	li	tp,0
80002d98:	00e00093          	li	ra,14
80002d9c:	00b00113          	li	sp,11
80002da0:	00000013          	nop
80002da4:	2020e733          	sh3add	a4,ra,sp
80002da8:	00120213          	addi	tp,tp,1 # 1 <_start-0x7fffffff>
80002dac:	00200293          	li	t0,2
80002db0:	fe5214e3          	bne	tp,t0,80002d98 <test_24+0x8>
80002db4:	07b00393          	li	t2,123
80002db8:	22771263          	bne	a4,t2,80002fdc <fail>

80002dbc <test_25>:
80002dbc:	01900193          	li	gp,25
80002dc0:	00000213          	li	tp,0
80002dc4:	00f00093          	li	ra,15
80002dc8:	00b00113          	li	sp,11
80002dcc:	00000013          	nop
80002dd0:	00000013          	nop
80002dd4:	2020e733          	sh3add	a4,ra,sp
80002dd8:	00120213          	addi	tp,tp,1 # 1 <_start-0x7fffffff>
80002ddc:	00200293          	li	t0,2
80002de0:	fe5212e3          	bne	tp,t0,80002dc4 <test_25+0x8>
80002de4:	08300393          	li	t2,131
80002de8:	1e771a63          	bne	a4,t2,80002fdc <fail>

80002dec <test_26>:
80002dec:	01a00193          	li	gp,26
80002df0:	00000213          	li	tp,0
80002df4:	00d00093          	li	ra,13
80002df8:	00000013          	nop
80002dfc:	00b00113          	li	sp,11
80002e00:	2020e733          	sh3add	a4,ra,sp
80002e04:	00120213          	addi	tp,tp,1 # 1 <_start-0x7fffffff>
80002e08:	00200293          	li	t0,2
80002e0c:	fe5214e3          	bne	tp,t0,80002df4 <test_26+0x8>
80002e10:	07300393          	li	t2,115
80002e14:	1c771463          	bne	a4,t2,80002fdc <fail>

80002e18 <test_27>:
80002e18:	01b00193          	li	gp,27
80002e1c:	00000213          	li	tp,0
80002e20:	00e00093          	li	ra,14
80002e24:	00000013          	nop
80002e28:	00b00113          	li	sp,11
80002e2c:	00000013          	nop
80002e30:	2020e733          	sh3add	a4,ra,sp
80002e34:	00120213          	addi	tp,tp,1 # 1 <_start-0x7fffffff>
80002e38:	00200293          	li	t0,2
80002e3c:	fe5212e3          	bne	tp,t0,80002e20 <test_27+0x8>
80002e40:	07b00393          	li	t2,123
80002e44:	18771c63          	bne	a4,t2,80002fdc <fail>

80002e48 <test_28>:
80002e48:	01c00193          	li	gp,28
80002e4c:	00000213          	li	tp,0
80002e50:	00f00093          	li	ra,15
80002e54:	00000013          	nop
80002e58:	00000013          	nop
80002e5c:	00b00113          	li	sp,11
80002e60:	2020e733          	sh3add	a4,ra,sp
80002e64:	00120213          	addi	tp,tp,1 # 1 <_start-0x7fffffff>
80002e68:	00200293          	li	t0,2
80002e6c:	fe5212e3          	bne	tp,t0,80002e50 <test_28+0x8>
80002e70:	08300393          	li	t2,131
80002e74:	16771463          	bne	a4,t2,80002fdc <fail>

80002e78 <test_29>:
80002e78:	01d00193          	li	gp,29
80002e7c:	00000213          	li	tp,0
80002e80:	00b00113          	li	sp,11
80002e84:	00d00093          	li	ra,13
80002e88:	2020e733          	sh3add	a4,ra,sp
80002e8c:	00120213          	addi	tp,tp,1 # 1 <_start-0x7fffffff>
80002e90:	00200293          	li	t0,2
80002e94:	fe5216e3          	bne	tp,t0,80002e80 <test_29+0x8>
80002e98:	07300393          	li	t2,115
80002e9c:	14771063          	bne	a4,t2,80002fdc <fail>

80002ea0 <test_30>:
80002ea0:	01e00193          	li	gp,30
80002ea4:	00000213          	li	tp,0
80002ea8:	00b00113          	li	sp,11
80002eac:	00e00093          	li	ra,14
80002eb0:	00000013          	nop
80002eb4:	2020e733          	sh3add	a4,ra,sp
80002eb8:	00120213          	addi	tp,tp,1 # 1 <_start-0x7fffffff>
80002ebc:	00200293          	li	t0,2
80002ec0:	fe5214e3          	bne	tp,t0,80002ea8 <test_30+0x8>
80002ec4:	07b00393          	li	t2,123
80002ec8:	10771a63          	bne	a4,t2,80002fdc <fail>

80002ecc <test_31>:
80002ecc:	01f00193          	li	gp,31
80002ed0:	00000213          	li	tp,0
80002ed4:	00b00113          	li	sp,11
80002ed8:	00f00093          	li	ra,15
80002edc:	00000013          	nop
80002ee0:	00000013          	nop
80002ee4:	2020e733          	sh3add	a4,ra,sp
80002ee8:	00120213          	addi	tp,tp,1 # 1 <_start-0x7fffffff>
80002eec:	00200293          	li	t0,2
80002ef0:	fe5212e3          	bne	tp,t0,80002ed4 <test_31+0x8>
80002ef4:	08300393          	li	t2,131
80002ef8:	0e771263          	bne	a4,t2,80002fdc <fail>

80002efc <test_32>:
80002efc:	02000193          	li	gp,32
80002f00:	00000213          	li	tp,0
80002f04:	00b00113          	li	sp,11
80002f08:	00000013          	nop
80002f0c:	00d00093          	li	ra,13
80002f10:	2020e733          	sh3add	a4,ra,sp
80002f14:	00120213          	addi	tp,tp,1 # 1 <_start-0x7fffffff>
80002f18:	00200293          	li	t0,2
80002f1c:	fe5214e3          	bne	tp,t0,80002f04 <test_32+0x8>
80002f20:	07300393          	li	t2,115
80002f24:	0a771c63          	bne	a4,t2,80002fdc <fail>

80002f28 <test_33>:
80002f28:	02100193          	li	gp,33
80002f2c:	00000213          	li	tp,0
80002f30:	00b00113          	li	sp,11
80002f34:	00000013          	nop
80002f38:	00e00093          	li	ra,14
80002f3c:	00000013          	nop
80002f40:	2020e733          	sh3add	a4,ra,sp
80002f44:	00120213          	addi	tp,tp,1 # 1 <_start-0x7fffffff>
80002f48:	00200293          	li	t0,2
80002f4c:	fe5212e3          	bne	tp,t0,80002f30 <test_33+0x8>
80002f50:	07b00393          	li	t2,123
80002f54:	08771463          	bne	a4,t2,80002fdc <fail>

80002f58 <test_34>:
80002f58:	02200193          	li	gp,34
80002f5c:	00000213          	li	tp,0
80002f60:	00b00113          	li	sp,11
80002f64:	00000013          	nop
80002f68:	00000013          	nop
80002f6c:	00f00093          	li	ra,15
80002f70:	2020e733          	sh3add	a4,ra,sp
80002f74:	00120213          	addi	tp,tp,1 # 1 <_start-0x7fffffff>
80002f78:	00200293          	li	t0,2
80002f7c:	fe5212e3          	bne	tp,t0,80002f60 <test_34+0x8>
80002f80:	08300393          	li	t2,131
80002f84:	04771c63          	bne	a4,t2,80002fdc <fail>

80002f88 <test_35>:
80002f88:	02300193          	li	gp,35
80002f8c:	00f00093          	li	ra,15
80002f90:	20106133          	sh3add	sp,zero,ra
80002f94:	00f00393          	li	t2,15
80002f98:	04711263          	bne	sp,t2,80002fdc <fail>

80002f9c <test_36>:
80002f9c:	02400193          	li	gp,36
80002fa0:	02000093          	li	ra,32
80002fa4:	2000e133          	sh3add	sp,ra,zero
80002fa8:	10000393          	li	t2,256
80002fac:	02711863          	bne	sp,t2,80002fdc <fail>

80002fb0 <test_37>:
80002fb0:	02500193          	li	gp,37
80002fb4:	200060b3          	sh3add	ra,zero,zero
80002fb8:	00000393          	li	t2,0
80002fbc:	02709063          	bne	ra,t2,80002fdc <fail>

80002fc0 <test_38>:
80002fc0:	02600193          	li	gp,38
80002fc4:	01000093          	li	ra,16
80002fc8:	01e00113          	li	sp,30
80002fcc:	2020e033          	sh3add	zero,ra,sp
80002fd0:	00000393          	li	t2,0
80002fd4:	00701463          	bne	zero,t2,80002fdc <fail>
80002fd8:	00301a63          	bne	zero,gp,80002fec <pass>

80002fdc <fail>:
80002fdc:	00119513          	slli	a0,gp,0x1
80002fe0:	00050063          	beqz	a0,80002fe0 <fail+0x4>
80002fe4:	00156513          	ori	a0,a0,1
80002fe8:	00000073          	ecall

80002fec <pass>:
80002fec:	00100513          	li	a0,1
80002ff0:	00000073          	ecall
80002ff4:	c0001073          	unimp
