
rv32uzfh-p-fcvt_w:     file format elf32-littleriscv


Disassembly of section .text.init:

80000000 <_start>:
80000000:	0500006f          	j	80000050 <reset_vector>

80000004 <trap_vector>:
80000004:	34202f73          	csrr	t5,mcause
80000008:	00800f93          	li	t6,8
8000000c:	03ff0863          	beq	t5,t6,8000003c <write_tohost>
80000010:	00900f93          	li	t6,9
80000014:	03ff0463          	beq	t5,t6,8000003c <write_tohost>
80000018:	00b00f93          	li	t6,11
8000001c:	03ff0063          	beq	t5,t6,8000003c <write_tohost>
80000020:	00000f13          	li	t5,0
80000024:	000f0463          	beqz	t5,8000002c <trap_vector+0x28>
80000028:	000f0067          	jr	t5
8000002c:	34202f73          	csrr	t5,mcause
80000030:	000f5463          	bgez	t5,80000038 <handle_exception>
80000034:	0040006f          	j	80000038 <handle_exception>

80000038 <handle_exception>:
80000038:	5391e193          	ori	gp,gp,1337

8000003c <write_tohost>:
8000003c:	00001f17          	auipc	t5,0x1
80000040:	fc3f2223          	sw	gp,-60(t5) # 80001000 <tohost>
80000044:	00001f17          	auipc	t5,0x1
80000048:	fc0f2023          	sw	zero,-64(t5) # 80001004 <tohost+0x4>
8000004c:	ff1ff06f          	j	8000003c <write_tohost>

80000050 <reset_vector>:
80000050:	00000093          	li	ra,0
80000054:	00000113          	li	sp,0
80000058:	00000193          	li	gp,0
8000005c:	00000213          	li	tp,0
80000060:	00000293          	li	t0,0
80000064:	00000313          	li	t1,0
80000068:	00000393          	li	t2,0
8000006c:	00000413          	li	s0,0
80000070:	00000493          	li	s1,0
80000074:	00000513          	li	a0,0
80000078:	00000593          	li	a1,0
8000007c:	00000613          	li	a2,0
80000080:	00000693          	li	a3,0
80000084:	00000713          	li	a4,0
80000088:	00000793          	li	a5,0
8000008c:	00000813          	li	a6,0
80000090:	00000893          	li	a7,0
80000094:	00000913          	li	s2,0
80000098:	00000993          	li	s3,0
8000009c:	00000a13          	li	s4,0
800000a0:	00000a93          	li	s5,0
800000a4:	00000b13          	li	s6,0
800000a8:	00000b93          	li	s7,0
800000ac:	00000c13          	li	s8,0
800000b0:	00000c93          	li	s9,0
800000b4:	00000d13          	li	s10,0
800000b8:	00000d93          	li	s11,0
800000bc:	00000e13          	li	t3,0
800000c0:	00000e93          	li	t4,0
800000c4:	00000f13          	li	t5,0
800000c8:	00000f93          	li	t6,0
800000cc:	f1402573          	csrr	a0,mhartid
800000d0:	00051063          	bnez	a0,800000d0 <reset_vector+0x80>
800000d4:	00000297          	auipc	t0,0x0
800000d8:	01028293          	addi	t0,t0,16 # 800000e4 <reset_vector+0x94>
800000dc:	30529073          	csrw	mtvec,t0
800000e0:	74445073          	csrwi	0x744,8
800000e4:	00000297          	auipc	t0,0x0
800000e8:	01028293          	addi	t0,t0,16 # 800000f4 <reset_vector+0xa4>
800000ec:	30529073          	csrw	mtvec,t0
800000f0:	18005073          	csrwi	satp,0
800000f4:	00000297          	auipc	t0,0x0
800000f8:	02028293          	addi	t0,t0,32 # 80000114 <reset_vector+0xc4>
800000fc:	30529073          	csrw	mtvec,t0
80000100:	800002b7          	lui	t0,0x80000
80000104:	fff28293          	addi	t0,t0,-1 # 7fffffff <_start-0x1>
80000108:	3b029073          	csrw	pmpaddr0,t0
8000010c:	01f00293          	li	t0,31
80000110:	3a029073          	csrw	pmpcfg0,t0
80000114:	30405073          	csrwi	mie,0
80000118:	00000297          	auipc	t0,0x0
8000011c:	01428293          	addi	t0,t0,20 # 8000012c <reset_vector+0xdc>
80000120:	30529073          	csrw	mtvec,t0
80000124:	30205073          	csrwi	medeleg,0
80000128:	30305073          	csrwi	mideleg,0
8000012c:	00000193          	li	gp,0
80000130:	00000297          	auipc	t0,0x0
80000134:	ed428293          	addi	t0,t0,-300 # 80000004 <trap_vector>
80000138:	30529073          	csrw	mtvec,t0
8000013c:	00100513          	li	a0,1
80000140:	01f51513          	slli	a0,a0,0x1f
80000144:	00054c63          	bltz	a0,8000015c <reset_vector+0x10c>
80000148:	0ff0000f          	fence
8000014c:	00100193          	li	gp,1
80000150:	05d00893          	li	a7,93
80000154:	00000513          	li	a0,0
80000158:	00000073          	ecall
8000015c:	00000293          	li	t0,0
80000160:	00028a63          	beqz	t0,80000174 <reset_vector+0x124>
80000164:	10529073          	csrw	stvec,t0
80000168:	0000b2b7          	lui	t0,0xb
8000016c:	10928293          	addi	t0,t0,265 # b109 <_start-0x7fff4ef7>
80000170:	30229073          	csrw	medeleg,t0
80000174:	30005073          	csrwi	mstatus,0
80000178:	00002537          	lui	a0,0x2
8000017c:	30052073          	csrs	mstatus,a0
80000180:	00305073          	csrwi	fcsr,0
80000184:	00000297          	auipc	t0,0x0
80000188:	01428293          	addi	t0,t0,20 # 80000198 <test_2>
8000018c:	34129073          	csrw	mepc,t0
80000190:	f1402573          	csrr	a0,mhartid
80000194:	30200073          	mret

80000198 <test_2>:
80000198:	00200193          	li	gp,2
8000019c:	00002517          	auipc	a0,0x2
800001a0:	e6450513          	addi	a0,a0,-412 # 80002000 <test_2_data>
800001a4:	00051007          	flh	ft0,0(a0)
800001a8:	00251087          	flh	ft1,2(a0)
800001ac:	00451107          	flh	ft2,4(a0)
800001b0:	00651683          	lh	a3,6(a0)
800001b4:	c4001553          	fcvt.w.h	a0,ft0,rtz
800001b8:	001015f3          	fsflags	a1,zero
800001bc:	00100613          	li	a2,1
800001c0:	3cd51463          	bne	a0,a3,80000588 <fail>
800001c4:	3cc59263          	bne	a1,a2,80000588 <fail>

800001c8 <test_3>:
800001c8:	00300193          	li	gp,3
800001cc:	00002517          	auipc	a0,0x2
800001d0:	e3e50513          	addi	a0,a0,-450 # 8000200a <test_3_data>
800001d4:	00051007          	flh	ft0,0(a0)
800001d8:	00251087          	flh	ft1,2(a0)
800001dc:	00451107          	flh	ft2,4(a0)
800001e0:	00651683          	lh	a3,6(a0)
800001e4:	c4001553          	fcvt.w.h	a0,ft0,rtz
800001e8:	001015f3          	fsflags	a1,zero
800001ec:	00000613          	li	a2,0
800001f0:	38d51c63          	bne	a0,a3,80000588 <fail>
800001f4:	38c59a63          	bne	a1,a2,80000588 <fail>

800001f8 <test_4>:
800001f8:	00400193          	li	gp,4
800001fc:	00002517          	auipc	a0,0x2
80000200:	e1850513          	addi	a0,a0,-488 # 80002014 <test_4_data>
80000204:	00051007          	flh	ft0,0(a0)
80000208:	00251087          	flh	ft1,2(a0)
8000020c:	00451107          	flh	ft2,4(a0)
80000210:	00651683          	lh	a3,6(a0)
80000214:	c4001553          	fcvt.w.h	a0,ft0,rtz
80000218:	001015f3          	fsflags	a1,zero
8000021c:	00100613          	li	a2,1
80000220:	36d51463          	bne	a0,a3,80000588 <fail>
80000224:	36c59263          	bne	a1,a2,80000588 <fail>

80000228 <test_5>:
80000228:	00500193          	li	gp,5
8000022c:	00002517          	auipc	a0,0x2
80000230:	df250513          	addi	a0,a0,-526 # 8000201e <test_5_data>
80000234:	00051007          	flh	ft0,0(a0)
80000238:	00251087          	flh	ft1,2(a0)
8000023c:	00451107          	flh	ft2,4(a0)
80000240:	00651683          	lh	a3,6(a0)
80000244:	c4001553          	fcvt.w.h	a0,ft0,rtz
80000248:	001015f3          	fsflags	a1,zero
8000024c:	00100613          	li	a2,1
80000250:	32d51c63          	bne	a0,a3,80000588 <fail>
80000254:	32c59a63          	bne	a1,a2,80000588 <fail>

80000258 <test_6>:
80000258:	00600193          	li	gp,6
8000025c:	00002517          	auipc	a0,0x2
80000260:	dcc50513          	addi	a0,a0,-564 # 80002028 <test_6_data>
80000264:	00051007          	flh	ft0,0(a0)
80000268:	00251087          	flh	ft1,2(a0)
8000026c:	00451107          	flh	ft2,4(a0)
80000270:	00651683          	lh	a3,6(a0)
80000274:	c4001553          	fcvt.w.h	a0,ft0,rtz
80000278:	001015f3          	fsflags	a1,zero
8000027c:	00000613          	li	a2,0
80000280:	30d51463          	bne	a0,a3,80000588 <fail>
80000284:	30c59263          	bne	a1,a2,80000588 <fail>

80000288 <test_7>:
80000288:	00700193          	li	gp,7
8000028c:	00002517          	auipc	a0,0x2
80000290:	da650513          	addi	a0,a0,-602 # 80002032 <test_7_data>
80000294:	00051007          	flh	ft0,0(a0)
80000298:	00251087          	flh	ft1,2(a0)
8000029c:	00451107          	flh	ft2,4(a0)
800002a0:	00651683          	lh	a3,6(a0)
800002a4:	c4001553          	fcvt.w.h	a0,ft0,rtz
800002a8:	001015f3          	fsflags	a1,zero
800002ac:	00100613          	li	a2,1
800002b0:	2cd51c63          	bne	a0,a3,80000588 <fail>
800002b4:	2cc59a63          	bne	a1,a2,80000588 <fail>

800002b8 <test_8>:
800002b8:	00800193          	li	gp,8
800002bc:	00002517          	auipc	a0,0x2
800002c0:	d8050513          	addi	a0,a0,-640 # 8000203c <test_8_data>
800002c4:	00051007          	flh	ft0,0(a0)
800002c8:	00251087          	flh	ft1,2(a0)
800002cc:	00451107          	flh	ft2,4(a0)
800002d0:	00651683          	lh	a3,6(a0)
800002d4:	c4001553          	fcvt.w.h	a0,ft0,rtz
800002d8:	001015f3          	fsflags	a1,zero
800002dc:	00000613          	li	a2,0
800002e0:	2ad51463          	bne	a0,a3,80000588 <fail>
800002e4:	2ac59263          	bne	a1,a2,80000588 <fail>

800002e8 <test_9>:
800002e8:	00900193          	li	gp,9
800002ec:	00002517          	auipc	a0,0x2
800002f0:	d5a50513          	addi	a0,a0,-678 # 80002046 <test_9_data>
800002f4:	00051007          	flh	ft0,0(a0)
800002f8:	00251087          	flh	ft1,2(a0)
800002fc:	00451107          	flh	ft2,4(a0)
80000300:	00651683          	lh	a3,6(a0)
80000304:	c4001553          	fcvt.w.h	a0,ft0,rtz
80000308:	001015f3          	fsflags	a1,zero
8000030c:	00000613          	li	a2,0
80000310:	26d51c63          	bne	a0,a3,80000588 <fail>
80000314:	26c59a63          	bne	a1,a2,80000588 <fail>

80000318 <test_12>:
80000318:	00c00193          	li	gp,12
8000031c:	00002517          	auipc	a0,0x2
80000320:	d3450513          	addi	a0,a0,-716 # 80002050 <test_12_data>
80000324:	00051007          	flh	ft0,0(a0)
80000328:	00251087          	flh	ft1,2(a0)
8000032c:	00451107          	flh	ft2,4(a0)
80000330:	00651683          	lh	a3,6(a0)
80000334:	c4101553          	fcvt.wu.h	a0,ft0,rtz
80000338:	001015f3          	fsflags	a1,zero
8000033c:	01000613          	li	a2,16
80000340:	24d51463          	bne	a0,a3,80000588 <fail>
80000344:	24c59263          	bne	a1,a2,80000588 <fail>

80000348 <test_13>:
80000348:	00d00193          	li	gp,13
8000034c:	00002517          	auipc	a0,0x2
80000350:	d0e50513          	addi	a0,a0,-754 # 8000205a <test_13_data>
80000354:	00051007          	flh	ft0,0(a0)
80000358:	00251087          	flh	ft1,2(a0)
8000035c:	00451107          	flh	ft2,4(a0)
80000360:	00651683          	lh	a3,6(a0)
80000364:	c4101553          	fcvt.wu.h	a0,ft0,rtz
80000368:	001015f3          	fsflags	a1,zero
8000036c:	01000613          	li	a2,16
80000370:	20d51c63          	bne	a0,a3,80000588 <fail>
80000374:	20c59a63          	bne	a1,a2,80000588 <fail>

80000378 <test_14>:
80000378:	00e00193          	li	gp,14
8000037c:	00002517          	auipc	a0,0x2
80000380:	ce850513          	addi	a0,a0,-792 # 80002064 <test_14_data>
80000384:	00051007          	flh	ft0,0(a0)
80000388:	00251087          	flh	ft1,2(a0)
8000038c:	00451107          	flh	ft2,4(a0)
80000390:	00651683          	lh	a3,6(a0)
80000394:	c4101553          	fcvt.wu.h	a0,ft0,rtz
80000398:	001015f3          	fsflags	a1,zero
8000039c:	00100613          	li	a2,1
800003a0:	1ed51463          	bne	a0,a3,80000588 <fail>
800003a4:	1ec59263          	bne	a1,a2,80000588 <fail>

800003a8 <test_15>:
800003a8:	00f00193          	li	gp,15
800003ac:	00002517          	auipc	a0,0x2
800003b0:	cc250513          	addi	a0,a0,-830 # 8000206e <test_15_data>
800003b4:	00051007          	flh	ft0,0(a0)
800003b8:	00251087          	flh	ft1,2(a0)
800003bc:	00451107          	flh	ft2,4(a0)
800003c0:	00651683          	lh	a3,6(a0)
800003c4:	c4101553          	fcvt.wu.h	a0,ft0,rtz
800003c8:	001015f3          	fsflags	a1,zero
800003cc:	00100613          	li	a2,1
800003d0:	1ad51c63          	bne	a0,a3,80000588 <fail>
800003d4:	1ac59a63          	bne	a1,a2,80000588 <fail>

800003d8 <test_16>:
800003d8:	01000193          	li	gp,16
800003dc:	00002517          	auipc	a0,0x2
800003e0:	c9c50513          	addi	a0,a0,-868 # 80002078 <test_16_data>
800003e4:	00051007          	flh	ft0,0(a0)
800003e8:	00251087          	flh	ft1,2(a0)
800003ec:	00451107          	flh	ft2,4(a0)
800003f0:	00651683          	lh	a3,6(a0)
800003f4:	c4101553          	fcvt.wu.h	a0,ft0,rtz
800003f8:	001015f3          	fsflags	a1,zero
800003fc:	00000613          	li	a2,0
80000400:	18d51463          	bne	a0,a3,80000588 <fail>
80000404:	18c59263          	bne	a1,a2,80000588 <fail>

80000408 <test_17>:
80000408:	01100193          	li	gp,17
8000040c:	00002517          	auipc	a0,0x2
80000410:	c7650513          	addi	a0,a0,-906 # 80002082 <test_17_data>
80000414:	00051007          	flh	ft0,0(a0)
80000418:	00251087          	flh	ft1,2(a0)
8000041c:	00451107          	flh	ft2,4(a0)
80000420:	00651683          	lh	a3,6(a0)
80000424:	c4101553          	fcvt.wu.h	a0,ft0,rtz
80000428:	001015f3          	fsflags	a1,zero
8000042c:	00100613          	li	a2,1
80000430:	14d51c63          	bne	a0,a3,80000588 <fail>
80000434:	14c59a63          	bne	a1,a2,80000588 <fail>

80000438 <test_18>:
80000438:	01200193          	li	gp,18
8000043c:	00002517          	auipc	a0,0x2
80000440:	c5050513          	addi	a0,a0,-944 # 8000208c <test_18_data>
80000444:	00051007          	flh	ft0,0(a0)
80000448:	00251087          	flh	ft1,2(a0)
8000044c:	00451107          	flh	ft2,4(a0)
80000450:	00651683          	lh	a3,6(a0)
80000454:	c4101553          	fcvt.wu.h	a0,ft0,rtz
80000458:	001015f3          	fsflags	a1,zero
8000045c:	01000613          	li	a2,16
80000460:	12d51463          	bne	a0,a3,80000588 <fail>
80000464:	12c59263          	bne	a1,a2,80000588 <fail>

80000468 <test_19>:
80000468:	01300193          	li	gp,19
8000046c:	00002517          	auipc	a0,0x2
80000470:	c2a50513          	addi	a0,a0,-982 # 80002096 <test_19_data>
80000474:	00051007          	flh	ft0,0(a0)
80000478:	00251087          	flh	ft1,2(a0)
8000047c:	00451107          	flh	ft2,4(a0)
80000480:	00651683          	lh	a3,6(a0)
80000484:	c4101553          	fcvt.wu.h	a0,ft0,rtz
80000488:	001015f3          	fsflags	a1,zero
8000048c:	00000613          	li	a2,0
80000490:	0ed51c63          	bne	a0,a3,80000588 <fail>
80000494:	0ec59a63          	bne	a1,a2,80000588 <fail>

80000498 <test_42>:
80000498:	02a00193          	li	gp,42
8000049c:	00002097          	auipc	ra,0x2
800004a0:	c0408093          	addi	ra,ra,-1020 # 800020a0 <begin_signature>
800004a4:	0000a087          	flw	ft1,0(ra)
800004a8:	c400f0d3          	fcvt.w.h	ra,ft1
800004ac:	800003b7          	lui	t2,0x80000
800004b0:	fff38393          	addi	t2,t2,-1 # 7fffffff <_start-0x1>
800004b4:	0c709a63          	bne	ra,t2,80000588 <fail>

800004b8 <test_43>:
800004b8:	02b00193          	li	gp,43
800004bc:	00002097          	auipc	ra,0x2
800004c0:	be408093          	addi	ra,ra,-1052 # 800020a0 <begin_signature>
800004c4:	0080a087          	flw	ft1,8(ra)
800004c8:	c400f0d3          	fcvt.w.h	ra,ft1
800004cc:	800003b7          	lui	t2,0x80000
800004d0:	0a709c63          	bne	ra,t2,80000588 <fail>

800004d4 <test_52>:
800004d4:	03400193          	li	gp,52
800004d8:	00002097          	auipc	ra,0x2
800004dc:	bc808093          	addi	ra,ra,-1080 # 800020a0 <begin_signature>
800004e0:	0040a087          	flw	ft1,4(ra)
800004e4:	c400f0d3          	fcvt.w.h	ra,ft1
800004e8:	800003b7          	lui	t2,0x80000
800004ec:	fff38393          	addi	t2,t2,-1 # 7fffffff <_start-0x1>
800004f0:	08709c63          	bne	ra,t2,80000588 <fail>

800004f4 <test_53>:
800004f4:	03500193          	li	gp,53
800004f8:	00002097          	auipc	ra,0x2
800004fc:	ba808093          	addi	ra,ra,-1112 # 800020a0 <begin_signature>
80000500:	00c0a087          	flw	ft1,12(ra)
80000504:	c400f0d3          	fcvt.w.h	ra,ft1
80000508:	800003b7          	lui	t2,0x80000
8000050c:	fff38393          	addi	t2,t2,-1 # 7fffffff <_start-0x1>
80000510:	06709c63          	bne	ra,t2,80000588 <fail>

80000514 <test_62>:
80000514:	03e00193          	li	gp,62
80000518:	00002097          	auipc	ra,0x2
8000051c:	b8808093          	addi	ra,ra,-1144 # 800020a0 <begin_signature>
80000520:	0000a087          	flw	ft1,0(ra)
80000524:	c410f0d3          	fcvt.wu.h	ra,ft1
80000528:	fff00393          	li	t2,-1
8000052c:	04709e63          	bne	ra,t2,80000588 <fail>

80000530 <test_63>:
80000530:	03f00193          	li	gp,63
80000534:	00002097          	auipc	ra,0x2
80000538:	b6c08093          	addi	ra,ra,-1172 # 800020a0 <begin_signature>
8000053c:	0040a087          	flw	ft1,4(ra)
80000540:	c410f0d3          	fcvt.wu.h	ra,ft1
80000544:	fff00393          	li	t2,-1
80000548:	04709063          	bne	ra,t2,80000588 <fail>

8000054c <test_64>:
8000054c:	04000193          	li	gp,64
80000550:	00002097          	auipc	ra,0x2
80000554:	b5008093          	addi	ra,ra,-1200 # 800020a0 <begin_signature>
80000558:	0080a087          	flw	ft1,8(ra)
8000055c:	c410f0d3          	fcvt.wu.h	ra,ft1
80000560:	00000393          	li	t2,0
80000564:	02709263          	bne	ra,t2,80000588 <fail>

80000568 <test_65>:
80000568:	04100193          	li	gp,65
8000056c:	00002097          	auipc	ra,0x2
80000570:	b3408093          	addi	ra,ra,-1228 # 800020a0 <begin_signature>
80000574:	00c0a087          	flw	ft1,12(ra)
80000578:	c410f0d3          	fcvt.wu.h	ra,ft1
8000057c:	fff00393          	li	t2,-1
80000580:	00709463          	bne	ra,t2,80000588 <fail>
80000584:	02301063          	bne	zero,gp,800005a4 <pass>

80000588 <fail>:
80000588:	0ff0000f          	fence
8000058c:	00018063          	beqz	gp,8000058c <fail+0x4>
80000590:	00119193          	slli	gp,gp,0x1
80000594:	0011e193          	ori	gp,gp,1
80000598:	05d00893          	li	a7,93
8000059c:	00018513          	mv	a0,gp
800005a0:	00000073          	ecall

800005a4 <pass>:
800005a4:	0ff0000f          	fence
800005a8:	00100193          	li	gp,1
800005ac:	05d00893          	li	a7,93
800005b0:	00000513          	li	a0,0
800005b4:	00000073          	ecall
800005b8:	c0001073          	unimp

Disassembly of section .data:

80002000 <test_2_data>:
80002000:	bc66                	.insn	2, 0xbc66
80002002:	0000                	.insn	2, 0x
80002004:	0000                	.insn	2, 0x
80002006:	ffff                	.insn	2, 0xffff
80002008:	ffff                	.insn	2, 0xffff

8000200a <test_3_data>:
8000200a:	bc00                	.insn	2, 0xbc00
8000200c:	0000                	.insn	2, 0x
8000200e:	0000                	.insn	2, 0x
80002010:	ffff                	.insn	2, 0xffff
80002012:	ffff                	.insn	2, 0xffff

80002014 <test_4_data>:
80002014:	0000bb33          	sltu	s6,ra,zero
80002018:	0000                	.insn	2, 0x
8000201a:	0000                	.insn	2, 0x
8000201c:	0000                	.insn	2, 0x

8000201e <test_5_data>:
8000201e:	00003b33          	snez	s6,zero
80002022:	0000                	.insn	2, 0x
80002024:	0000                	.insn	2, 0x
80002026:	0000                	.insn	2, 0x

80002028 <test_6_data>:
80002028:	3c00                	.insn	2, 0x3c00
8000202a:	0000                	.insn	2, 0x
8000202c:	0000                	.insn	2, 0x
8000202e:	0001                	.insn	2, 0x0001
80002030:	0000                	.insn	2, 0x

80002032 <test_7_data>:
80002032:	3c66                	.insn	2, 0x3c66
80002034:	0000                	.insn	2, 0x
80002036:	0000                	.insn	2, 0x
80002038:	0001                	.insn	2, 0x0001
8000203a:	0000                	.insn	2, 0x

8000203c <test_8_data>:
8000203c:	0000e803          	.insn	4, 0xe803
80002040:	0000                	.insn	2, 0x
80002042:	f7fa                	.insn	2, 0xf7fa
80002044:	ffff                	.insn	2, 0xffff

80002046 <test_9_data>:
80002046:	00006803          	.insn	4, 0x6803
8000204a:	0000                	.insn	2, 0x
8000204c:	0806                	.insn	2, 0x0806
8000204e:	0000                	.insn	2, 0x

80002050 <test_12_data>:
80002050:	c200                	.insn	2, 0xc200
80002052:	0000                	.insn	2, 0x
80002054:	0000                	.insn	2, 0x
80002056:	0000                	.insn	2, 0x
80002058:	0000                	.insn	2, 0x

8000205a <test_13_data>:
8000205a:	bc00                	.insn	2, 0xbc00
8000205c:	0000                	.insn	2, 0x
8000205e:	0000                	.insn	2, 0x
80002060:	0000                	.insn	2, 0x
80002062:	0000                	.insn	2, 0x

80002064 <test_14_data>:
80002064:	0000bb33          	sltu	s6,ra,zero
80002068:	0000                	.insn	2, 0x
8000206a:	0000                	.insn	2, 0x
8000206c:	0000                	.insn	2, 0x

8000206e <test_15_data>:
8000206e:	00003b33          	snez	s6,zero
80002072:	0000                	.insn	2, 0x
80002074:	0000                	.insn	2, 0x
80002076:	0000                	.insn	2, 0x

80002078 <test_16_data>:
80002078:	3c00                	.insn	2, 0x3c00
8000207a:	0000                	.insn	2, 0x
8000207c:	0000                	.insn	2, 0x
8000207e:	0001                	.insn	2, 0x0001
80002080:	0000                	.insn	2, 0x

80002082 <test_17_data>:
80002082:	3c66                	.insn	2, 0x3c66
80002084:	0000                	.insn	2, 0x
80002086:	0000                	.insn	2, 0x
80002088:	0001                	.insn	2, 0x0001
8000208a:	0000                	.insn	2, 0x

8000208c <test_18_data>:
8000208c:	0000e803          	.insn	4, 0xe803
80002090:	0000                	.insn	2, 0x
80002092:	0000                	.insn	2, 0x
80002094:	0000                	.insn	2, 0x

80002096 <test_19_data>:
80002096:	00006803          	.insn	4, 0x6803
8000209a:	0000                	.insn	2, 0x
8000209c:	0806                	.insn	2, 0x0806
8000209e:	0000                	.insn	2, 0x

800020a0 <begin_signature>:
800020a0:	ffff                	.insn	2, 0xffff
800020a2:	ffff                	.insn	2, 0xffff
800020a4:	7fff                	.insn	2, 0x7fff
800020a6:	ffff                	.insn	2, 0xffff
800020a8:	fc00                	.insn	2, 0xfc00
800020aa:	ffff                	.insn	2, 0xffff
800020ac:	7c00                	.insn	2, 0x7c00
800020ae:	ffff                	.insn	2, 0xffff
