
rv64ui-v-ma_data:     formato del fichero elf64-littleriscv


Desensamblado de la sección .text.init:

0000000080000000 <_start>:
    80000000:	00c0006f          	j	8000000c <handle_reset>

0000000080000004 <nmi_vector>:
    80000004:	2bc0206f          	j	800022c0 <wtf>

0000000080000008 <trap_vector>:
    80000008:	2b80206f          	j	800022c0 <wtf>

000000008000000c <handle_reset>:
    8000000c:	00000093          	li	ra,0
    80000010:	00000113          	li	sp,0
    80000014:	00000193          	li	gp,0
    80000018:	00000213          	li	tp,0
    8000001c:	00000293          	li	t0,0
    80000020:	00000313          	li	t1,0
    80000024:	00000393          	li	t2,0
    80000028:	00000413          	li	s0,0
    8000002c:	00000493          	li	s1,0
    80000030:	00000513          	li	a0,0
    80000034:	00000593          	li	a1,0
    80000038:	00000613          	li	a2,0
    8000003c:	00000693          	li	a3,0
    80000040:	00000713          	li	a4,0
    80000044:	00000793          	li	a5,0
    80000048:	00000813          	li	a6,0
    8000004c:	00000893          	li	a7,0
    80000050:	00000913          	li	s2,0
    80000054:	00000993          	li	s3,0
    80000058:	00000a13          	li	s4,0
    8000005c:	00000a93          	li	s5,0
    80000060:	00000b13          	li	s6,0
    80000064:	00000b93          	li	s7,0
    80000068:	00000c13          	li	s8,0
    8000006c:	00000c93          	li	s9,0
    80000070:	00000d13          	li	s10,0
    80000074:	00000d93          	li	s11,0
    80000078:	00000e13          	li	t3,0
    8000007c:	00000e93          	li	t4,0
    80000080:	00000f13          	li	t5,0
    80000084:	00000f93          	li	t6,0
    80000088:	00000297          	auipc	t0,0x0
    8000008c:	01028293          	add	t0,t0,16 # 80000098 <handle_reset+0x8c>
    80000090:	30529073          	csrw	mtvec,t0
    80000094:	74445073          	csrw	0x744,8
    80000098:	00000297          	auipc	t0,0x0
    8000009c:	f7028293          	add	t0,t0,-144 # 80000008 <trap_vector>
    800000a0:	30529073          	csrw	mtvec,t0
    800000a4:	0000f117          	auipc	sp,0xf
    800000a8:	e3c10113          	add	sp,sp,-452 # 8000eee0 <freelist_head+0x3ed8>
    800000ac:	f14022f3          	csrr	t0,mhartid
    800000b0:	00c29293          	sll	t0,t0,0xc
    800000b4:	00510133          	add	sp,sp,t0
    800000b8:	34011073          	csrw	mscratch,sp
    800000bc:	13d020ef          	jal	800029f8 <extra_boot>
    800000c0:	00003517          	auipc	a0,0x3
    800000c4:	94c50513          	add	a0,a0,-1716 # 80002a0c <userstart>
    800000c8:	7340206f          	j	800027fc <vm_boot>

00000000800000cc <pop_tf>:
    800000cc:	10853283          	ld	t0,264(a0)
    800000d0:	14129073          	csrw	sepc,t0
    800000d4:	00853083          	ld	ra,8(a0)
    800000d8:	01053103          	ld	sp,16(a0)
    800000dc:	01853183          	ld	gp,24(a0)
    800000e0:	02053203          	ld	tp,32(a0)
    800000e4:	02853283          	ld	t0,40(a0)
    800000e8:	03053303          	ld	t1,48(a0)
    800000ec:	03853383          	ld	t2,56(a0)
    800000f0:	04053403          	ld	s0,64(a0)
    800000f4:	04853483          	ld	s1,72(a0)
    800000f8:	05853583          	ld	a1,88(a0)
    800000fc:	06053603          	ld	a2,96(a0)
    80000100:	06853683          	ld	a3,104(a0)
    80000104:	07053703          	ld	a4,112(a0)
    80000108:	07853783          	ld	a5,120(a0)
    8000010c:	08053803          	ld	a6,128(a0)
    80000110:	08853883          	ld	a7,136(a0)
    80000114:	09053903          	ld	s2,144(a0)
    80000118:	09853983          	ld	s3,152(a0)
    8000011c:	0a053a03          	ld	s4,160(a0)
    80000120:	0a853a83          	ld	s5,168(a0)
    80000124:	0b053b03          	ld	s6,176(a0)
    80000128:	0b853b83          	ld	s7,184(a0)
    8000012c:	0c053c03          	ld	s8,192(a0)
    80000130:	0c853c83          	ld	s9,200(a0)
    80000134:	0d053d03          	ld	s10,208(a0)
    80000138:	0d853d83          	ld	s11,216(a0)
    8000013c:	0e053e03          	ld	t3,224(a0)
    80000140:	0e853e83          	ld	t4,232(a0)
    80000144:	0f053f03          	ld	t5,240(a0)
    80000148:	0f853f83          	ld	t6,248(a0)
    8000014c:	05053503          	ld	a0,80(a0)
    80000150:	10200073          	sret

0000000080000154 <trap_entry>:
    80000154:	14011173          	csrrw	sp,sscratch,sp
    80000158:	00113423          	sd	ra,8(sp)
    8000015c:	00313c23          	sd	gp,24(sp)
    80000160:	02413023          	sd	tp,32(sp)
    80000164:	02513423          	sd	t0,40(sp)
    80000168:	02613823          	sd	t1,48(sp)
    8000016c:	02713c23          	sd	t2,56(sp)
    80000170:	04813023          	sd	s0,64(sp)
    80000174:	04913423          	sd	s1,72(sp)
    80000178:	04a13823          	sd	a0,80(sp)
    8000017c:	04b13c23          	sd	a1,88(sp)
    80000180:	06c13023          	sd	a2,96(sp)
    80000184:	06d13423          	sd	a3,104(sp)
    80000188:	06e13823          	sd	a4,112(sp)
    8000018c:	06f13c23          	sd	a5,120(sp)
    80000190:	09013023          	sd	a6,128(sp)
    80000194:	09113423          	sd	a7,136(sp)
    80000198:	09213823          	sd	s2,144(sp)
    8000019c:	09313c23          	sd	s3,152(sp)
    800001a0:	0b413023          	sd	s4,160(sp)
    800001a4:	0b513423          	sd	s5,168(sp)
    800001a8:	0b613823          	sd	s6,176(sp)
    800001ac:	0b713c23          	sd	s7,184(sp)
    800001b0:	0d813023          	sd	s8,192(sp)
    800001b4:	0d913423          	sd	s9,200(sp)
    800001b8:	0da13823          	sd	s10,208(sp)
    800001bc:	0db13c23          	sd	s11,216(sp)
    800001c0:	0fc13023          	sd	t3,224(sp)
    800001c4:	0fd13423          	sd	t4,232(sp)
    800001c8:	0fe13823          	sd	t5,240(sp)
    800001cc:	0ff13c23          	sd	t6,248(sp)
    800001d0:	140112f3          	csrrw	t0,sscratch,sp
    800001d4:	00513823          	sd	t0,16(sp)
    800001d8:	100022f3          	csrr	t0,sstatus
    800001dc:	10513023          	sd	t0,256(sp)
    800001e0:	141022f3          	csrr	t0,sepc
    800001e4:	10513423          	sd	t0,264(sp)
    800001e8:	143022f3          	csrr	t0,stval
    800001ec:	10513823          	sd	t0,272(sp)
    800001f0:	142022f3          	csrr	t0,scause
    800001f4:	10513c23          	sd	t0,280(sp)
    800001f8:	00010513          	mv	a0,sp
    800001fc:	37c0206f          	j	80002578 <handle_trap>

Desensamblado de la sección .text:

0000000080002000 <memcpy>:
    80002000:	00b567b3          	or	a5,a0,a1
    80002004:	00c7e7b3          	or	a5,a5,a2
    80002008:	0077f793          	and	a5,a5,7
    8000200c:	00c506b3          	add	a3,a0,a2
    80002010:	02078463          	beqz	a5,80002038 <memcpy+0x38>
    80002014:	00c58633          	add	a2,a1,a2
    80002018:	00050793          	mv	a5,a0
    8000201c:	02d57e63          	bgeu	a0,a3,80002058 <memcpy+0x58>
    80002020:	0005c703          	lbu	a4,0(a1)
    80002024:	00158593          	add	a1,a1,1
    80002028:	00178793          	add	a5,a5,1
    8000202c:	fee78fa3          	sb	a4,-1(a5)
    80002030:	fec598e3          	bne	a1,a2,80002020 <memcpy+0x20>
    80002034:	00008067          	ret
    80002038:	fed57ee3          	bgeu	a0,a3,80002034 <memcpy+0x34>
    8000203c:	00050793          	mv	a5,a0
    80002040:	0005b703          	ld	a4,0(a1)
    80002044:	00878793          	add	a5,a5,8
    80002048:	00858593          	add	a1,a1,8
    8000204c:	fee7bc23          	sd	a4,-8(a5)
    80002050:	fed7e8e3          	bltu	a5,a3,80002040 <memcpy+0x40>
    80002054:	00008067          	ret
    80002058:	00008067          	ret

000000008000205c <memset>:
    8000205c:	ff010113          	add	sp,sp,-16
    80002060:	00c567b3          	or	a5,a0,a2
    80002064:	00813023          	sd	s0,0(sp)
    80002068:	00113423          	sd	ra,8(sp)
    8000206c:	0077f793          	and	a5,a5,7
    80002070:	00050413          	mv	s0,a0
    80002074:	00c50733          	add	a4,a0,a2
    80002078:	02078263          	beqz	a5,8000209c <memset+0x40>
    8000207c:	00e57663          	bgeu	a0,a4,80002088 <memset+0x2c>
    80002080:	0ff5f593          	zext.b	a1,a1
    80002084:	fd9ff0ef          	jal	8000205c <memset>
    80002088:	00813083          	ld	ra,8(sp)
    8000208c:	00040513          	mv	a0,s0
    80002090:	00013403          	ld	s0,0(sp)
    80002094:	01010113          	add	sp,sp,16
    80002098:	00008067          	ret
    8000209c:	0ff5f593          	zext.b	a1,a1
    800020a0:	00002797          	auipc	a5,0x2
    800020a4:	6007b783          	ld	a5,1536(a5) # 800046a0 <pass+0xc>
    800020a8:	02f585b3          	mul	a1,a1,a5
    800020ac:	fce57ee3          	bgeu	a0,a4,80002088 <memset+0x2c>
    800020b0:	00050793          	mv	a5,a0
    800020b4:	00878793          	add	a5,a5,8
    800020b8:	feb7bc23          	sd	a1,-8(a5)
    800020bc:	fee7ece3          	bltu	a5,a4,800020b4 <memset+0x58>
    800020c0:	00813083          	ld	ra,8(sp)
    800020c4:	00040513          	mv	a0,s0
    800020c8:	00013403          	ld	s0,0(sp)
    800020cc:	01010113          	add	sp,sp,16
    800020d0:	00008067          	ret

00000000800020d4 <strlen>:
    800020d4:	00054783          	lbu	a5,0(a0)
    800020d8:	00078e63          	beqz	a5,800020f4 <strlen+0x20>
    800020dc:	00050793          	mv	a5,a0
    800020e0:	0017c703          	lbu	a4,1(a5)
    800020e4:	00178793          	add	a5,a5,1
    800020e8:	fe071ce3          	bnez	a4,800020e0 <strlen+0xc>
    800020ec:	40a78533          	sub	a0,a5,a0
    800020f0:	00008067          	ret
    800020f4:	00000513          	li	a0,0
    800020f8:	00008067          	ret

00000000800020fc <strcmp>:
    800020fc:	00054783          	lbu	a5,0(a0)
    80002100:	00158593          	add	a1,a1,1
    80002104:	00150513          	add	a0,a0,1
    80002108:	fff5c703          	lbu	a4,-1(a1)
    8000210c:	00078a63          	beqz	a5,80002120 <strcmp+0x24>
    80002110:	fee786e3          	beq	a5,a4,800020fc <strcmp>
    80002114:	0007851b          	sext.w	a0,a5
    80002118:	40e5053b          	subw	a0,a0,a4
    8000211c:	00008067          	ret
    80002120:	00000513          	li	a0,0
    80002124:	ff5ff06f          	j	80002118 <strcmp+0x1c>

0000000080002128 <memcmp>:
    80002128:	00b567b3          	or	a5,a0,a1
    8000212c:	0077f793          	and	a5,a5,7
    80002130:	02079e63          	bnez	a5,8000216c <memcmp+0x44>
    80002134:	ff867813          	and	a6,a2,-8
    80002138:	01050833          	add	a6,a0,a6
    8000213c:	03057863          	bgeu	a0,a6,8000216c <memcmp+0x44>
    80002140:	00050793          	mv	a5,a0
    80002144:	0100006f          	j	80002154 <memcmp+0x2c>
    80002148:	00878793          	add	a5,a5,8
    8000214c:	00858593          	add	a1,a1,8
    80002150:	0107f863          	bgeu	a5,a6,80002160 <memcmp+0x38>
    80002154:	0007b683          	ld	a3,0(a5)
    80002158:	0005b703          	ld	a4,0(a1)
    8000215c:	fee686e3          	beq	a3,a4,80002148 <memcmp+0x20>
    80002160:	40a78533          	sub	a0,a5,a0
    80002164:	40a60633          	sub	a2,a2,a0
    80002168:	00078513          	mv	a0,a5
    8000216c:	00c58633          	add	a2,a1,a2
    80002170:	0140006f          	j	80002184 <memcmp+0x5c>
    80002174:	0005c703          	lbu	a4,0(a1)
    80002178:	fff54783          	lbu	a5,-1(a0)
    8000217c:	00158593          	add	a1,a1,1
    80002180:	00e79a63          	bne	a5,a4,80002194 <memcmp+0x6c>
    80002184:	00150513          	add	a0,a0,1
    80002188:	fec596e3          	bne	a1,a2,80002174 <memcmp+0x4c>
    8000218c:	00000513          	li	a0,0
    80002190:	00008067          	ret
    80002194:	40e7853b          	subw	a0,a5,a4
    80002198:	00008067          	ret

000000008000219c <strcpy>:
    8000219c:	00050793          	mv	a5,a0
    800021a0:	0005c703          	lbu	a4,0(a1)
    800021a4:	00178793          	add	a5,a5,1
    800021a8:	00158593          	add	a1,a1,1
    800021ac:	fee78fa3          	sb	a4,-1(a5)
    800021b0:	fe0718e3          	bnez	a4,800021a0 <strcpy+0x4>
    800021b4:	00008067          	ret

00000000800021b8 <atol>:
    800021b8:	00054703          	lbu	a4,0(a0)
    800021bc:	02000693          	li	a3,32
    800021c0:	00050793          	mv	a5,a0
    800021c4:	00d71863          	bne	a4,a3,800021d4 <atol+0x1c>
    800021c8:	0017c703          	lbu	a4,1(a5)
    800021cc:	00178793          	add	a5,a5,1
    800021d0:	fed70ce3          	beq	a4,a3,800021c8 <atol+0x10>
    800021d4:	02d00693          	li	a3,45
    800021d8:	06d70063          	beq	a4,a3,80002238 <atol+0x80>
    800021dc:	02b00693          	li	a3,43
    800021e0:	04d70063          	beq	a4,a3,80002220 <atol+0x68>
    800021e4:	0007c683          	lbu	a3,0(a5)
    800021e8:	00000593          	li	a1,0
    800021ec:	04068263          	beqz	a3,80002230 <atol+0x78>
    800021f0:	00000513          	li	a0,0
    800021f4:	00178793          	add	a5,a5,1
    800021f8:	00251713          	sll	a4,a0,0x2
    800021fc:	fd06861b          	addw	a2,a3,-48
    80002200:	0007c683          	lbu	a3,0(a5)
    80002204:	00a70733          	add	a4,a4,a0
    80002208:	00171713          	sll	a4,a4,0x1
    8000220c:	00e60533          	add	a0,a2,a4
    80002210:	fe0692e3          	bnez	a3,800021f4 <atol+0x3c>
    80002214:	02058063          	beqz	a1,80002234 <atol+0x7c>
    80002218:	40a00533          	neg	a0,a0
    8000221c:	00008067          	ret
    80002220:	0017c683          	lbu	a3,1(a5)
    80002224:	00000593          	li	a1,0
    80002228:	00178793          	add	a5,a5,1
    8000222c:	fc0692e3          	bnez	a3,800021f0 <atol+0x38>
    80002230:	00000513          	li	a0,0
    80002234:	00008067          	ret
    80002238:	0017c683          	lbu	a3,1(a5)
    8000223c:	00100593          	li	a1,1
    80002240:	00178793          	add	a5,a5,1
    80002244:	fa0696e3          	bnez	a3,800021f0 <atol+0x38>
    80002248:	00000513          	li	a0,0
    8000224c:	fe9ff06f          	j	80002234 <atol+0x7c>

0000000080002250 <cputstring>:
    80002250:	00054783          	lbu	a5,0(a0)
    80002254:	04078063          	beqz	a5,80002294 <cputstring+0x44>
    80002258:	10100593          	li	a1,257
    8000225c:	fffff717          	auipc	a4,0xfffff
    80002260:	da470713          	add	a4,a4,-604 # 80001000 <tohost>
    80002264:	03059593          	sll	a1,a1,0x30
    80002268:	00073603          	ld	a2,0(a4)
    8000226c:	00150513          	add	a0,a0,1
    80002270:	00b7e6b3          	or	a3,a5,a1
    80002274:	00060a63          	beqz	a2,80002288 <cputstring+0x38>
    80002278:	fffff797          	auipc	a5,0xfffff
    8000227c:	dc07b423          	sd	zero,-568(a5) # 80001040 <fromhost>
    80002280:	00073783          	ld	a5,0(a4)
    80002284:	fe079ae3          	bnez	a5,80002278 <cputstring+0x28>
    80002288:	00d73023          	sd	a3,0(a4)
    8000228c:	00054783          	lbu	a5,0(a0)
    80002290:	fc079ce3          	bnez	a5,80002268 <cputstring+0x18>
    80002294:	00008067          	ret

0000000080002298 <terminate>:
    80002298:	fffff717          	auipc	a4,0xfffff
    8000229c:	d6870713          	add	a4,a4,-664 # 80001000 <tohost>
    800022a0:	00073783          	ld	a5,0(a4)
    800022a4:	00078a63          	beqz	a5,800022b8 <terminate+0x20>
    800022a8:	fffff797          	auipc	a5,0xfffff
    800022ac:	d807bc23          	sd	zero,-616(a5) # 80001040 <fromhost>
    800022b0:	00073783          	ld	a5,0(a4)
    800022b4:	fe079ae3          	bnez	a5,800022a8 <terminate+0x10>
    800022b8:	00a73023          	sd	a0,0(a4)
    800022bc:	0000006f          	j	800022bc <terminate+0x24>

00000000800022c0 <wtf>:
    800022c0:	ff010113          	add	sp,sp,-16
    800022c4:	34900513          	li	a0,841
    800022c8:	00113423          	sd	ra,8(sp)
    800022cc:	fcdff0ef          	jal	80002298 <terminate>

00000000800022d0 <printhex>:
    800022d0:	fe010113          	add	sp,sp,-32
    800022d4:	00810613          	add	a2,sp,8
    800022d8:	01710793          	add	a5,sp,23
    800022dc:	00900813          	li	a6,9
    800022e0:	0080006f          	j	800022e8 <printhex+0x18>
    800022e4:	00070793          	mv	a5,a4
    800022e8:	00f57693          	and	a3,a0,15
    800022ec:	00068713          	mv	a4,a3
    800022f0:	03000593          	li	a1,48
    800022f4:	00d87463          	bgeu	a6,a3,800022fc <printhex+0x2c>
    800022f8:	05700593          	li	a1,87
    800022fc:	00b7073b          	addw	a4,a4,a1
    80002300:	00e78023          	sb	a4,0(a5)
    80002304:	00455513          	srl	a0,a0,0x4
    80002308:	fff78713          	add	a4,a5,-1
    8000230c:	fcf61ce3          	bne	a2,a5,800022e4 <printhex+0x14>
    80002310:	00814783          	lbu	a5,8(sp)
    80002314:	00010c23          	sb	zero,24(sp)
    80002318:	04078263          	beqz	a5,8000235c <printhex+0x8c>
    8000231c:	10100513          	li	a0,257
    80002320:	00060693          	mv	a3,a2
    80002324:	fffff717          	auipc	a4,0xfffff
    80002328:	cdc70713          	add	a4,a4,-804 # 80001000 <tohost>
    8000232c:	03051513          	sll	a0,a0,0x30
    80002330:	00073583          	ld	a1,0(a4)
    80002334:	00168693          	add	a3,a3,1
    80002338:	00a7e633          	or	a2,a5,a0
    8000233c:	00058a63          	beqz	a1,80002350 <printhex+0x80>
    80002340:	fffff797          	auipc	a5,0xfffff
    80002344:	d007b023          	sd	zero,-768(a5) # 80001040 <fromhost>
    80002348:	00073783          	ld	a5,0(a4)
    8000234c:	fe079ae3          	bnez	a5,80002340 <printhex+0x70>
    80002350:	0006c783          	lbu	a5,0(a3)
    80002354:	00c73023          	sd	a2,0(a4)
    80002358:	fc079ce3          	bnez	a5,80002330 <printhex+0x60>
    8000235c:	02010113          	add	sp,sp,32
    80002360:	00008067          	ret

0000000080002364 <handle_fault>:
    80002364:	fb010113          	add	sp,sp,-80
    80002368:	00100793          	li	a5,1
    8000236c:	fffff737          	lui	a4,0xfffff
    80002370:	00f12223          	sw	a5,4(sp)
    80002374:	04113423          	sd	ra,72(sp)
    80002378:	04813023          	sd	s0,64(sp)
    8000237c:	02913c23          	sd	s1,56(sp)
    80002380:	03213823          	sd	s2,48(sp)
    80002384:	03313423          	sd	s3,40(sp)
    80002388:	03413023          	sd	s4,32(sp)
    8000238c:	01513c23          	sd	s5,24(sp)
    80002390:	00013423          	sd	zero,8(sp)
    80002394:	00e506b3          	add	a3,a0,a4
    80002398:	0003e7b7          	lui	a5,0x3e
    8000239c:	18f6f663          	bgeu	a3,a5,80002528 <handle_fault+0x1c4>
    800023a0:	00c55993          	srl	s3,a0,0xc
    800023a4:	60098493          	add	s1,s3,1536
    800023a8:	00005917          	auipc	s2,0x5
    800023ac:	c5890913          	add	s2,s2,-936 # 80007000 <pt>
    800023b0:	00349793          	sll	a5,s1,0x3
    800023b4:	00f907b3          	add	a5,s2,a5
    800023b8:	0007b783          	ld	a5,0(a5) # 3e000 <_start-0x7ffc2000>
    800023bc:	00e57433          	and	s0,a0,a4
    800023c0:	10079663          	bnez	a5,800024cc <handle_fault+0x168>
    800023c4:	00009717          	auipc	a4,0x9
    800023c8:	c4470713          	add	a4,a4,-956 # 8000b008 <freelist_head>
    800023cc:	00073a03          	ld	s4,0(a4)
    800023d0:	180a0063          	beqz	s4,80002550 <handle_fault+0x1ec>
    800023d4:	008a3783          	ld	a5,8(s4)
    800023d8:	00009697          	auipc	a3,0x9
    800023dc:	c286b683          	ld	a3,-984(a3) # 8000b000 <freelist_tail>
    800023e0:	00f73023          	sd	a5,0(a4)
    800023e4:	12d78c63          	beq	a5,a3,8000251c <handle_fault+0x1b8>
    800023e8:	00410613          	add	a2,sp,4
    800023ec:	00810593          	add	a1,sp,8
    800023f0:	00040513          	mv	a0,s0
    800023f4:	000a3a83          	ld	s5,0(s4)
    800023f8:	60c000ef          	jal	80002a04 <pf_filter>
    800023fc:	10051063          	bnez	a0,800024fc <handle_fault+0x198>
    80002400:	00cad693          	srl	a3,s5,0xc
    80002404:	00a69693          	sll	a3,a3,0xa
    80002408:	01f6e693          	or	a3,a3,31
    8000240c:	00349793          	sll	a5,s1,0x3
    80002410:	00f907b3          	add	a5,s2,a5
    80002414:	0c06e713          	or	a4,a3,192
    80002418:	00e7b023          	sd	a4,0(a5)
    8000241c:	12040073          	sfence.vma	s0
    80002420:	00004797          	auipc	a5,0x4
    80002424:	be078793          	add	a5,a5,-1056 # 80006000 <user_mapping>
    80002428:	00499993          	sll	s3,s3,0x4
    8000242c:	013787b3          	add	a5,a5,s3
    80002430:	0007b703          	ld	a4,0(a5)
    80002434:	12071863          	bnez	a4,80002564 <handle_fault+0x200>
    80002438:	000a3703          	ld	a4,0(s4)
    8000243c:	000405b7          	lui	a1,0x40
    80002440:	00e7b023          	sd	a4,0(a5)
    80002444:	008a3703          	ld	a4,8(s4)
    80002448:	00e7b423          	sd	a4,8(a5)
    8000244c:	1005a5f3          	csrrs	a1,sstatus,a1
    80002450:	ffe007b7          	lui	a5,0xffe00
    80002454:	00f407b3          	add	a5,s0,a5
    80002458:	00001637          	lui	a2,0x1
    8000245c:	00040713          	mv	a4,s0
    80002460:	00c78633          	add	a2,a5,a2
    80002464:	0007b303          	ld	t1,0(a5) # ffffffffffe00000 <freelist_head+0xffffffff7fdf4ff8>
    80002468:	0087b883          	ld	a7,8(a5)
    8000246c:	0107b803          	ld	a6,16(a5)
    80002470:	0187b503          	ld	a0,24(a5)
    80002474:	00673023          	sd	t1,0(a4)
    80002478:	01173423          	sd	a7,8(a4)
    8000247c:	01073823          	sd	a6,16(a4)
    80002480:	00a73c23          	sd	a0,24(a4)
    80002484:	02078793          	add	a5,a5,32
    80002488:	02070713          	add	a4,a4,32
    8000248c:	fcc79ce3          	bne	a5,a2,80002464 <handle_fault+0x100>
    80002490:	10059073          	csrw	sstatus,a1
    80002494:	00349793          	sll	a5,s1,0x3
    80002498:	00f904b3          	add	s1,s2,a5
    8000249c:	00d4b023          	sd	a3,0(s1)
    800024a0:	12040073          	sfence.vma	s0
    800024a4:	0000100f          	fence.i
    800024a8:	04813083          	ld	ra,72(sp)
    800024ac:	04013403          	ld	s0,64(sp)
    800024b0:	03813483          	ld	s1,56(sp)
    800024b4:	03013903          	ld	s2,48(sp)
    800024b8:	02813983          	ld	s3,40(sp)
    800024bc:	02013a03          	ld	s4,32(sp)
    800024c0:	01813a83          	ld	s5,24(sp)
    800024c4:	05010113          	add	sp,sp,80
    800024c8:	00008067          	ret
    800024cc:	0407f713          	and	a4,a5,64
    800024d0:	04070263          	beqz	a4,80002514 <handle_fault+0x1b0>
    800024d4:	0807f713          	and	a4,a5,128
    800024d8:	06071263          	bnez	a4,8000253c <handle_fault+0x1d8>
    800024dc:	00f00713          	li	a4,15
    800024e0:	0807e793          	or	a5,a5,128
    800024e4:	04e59c63          	bne	a1,a4,8000253c <handle_fault+0x1d8>
    800024e8:	00349493          	sll	s1,s1,0x3
    800024ec:	009904b3          	add	s1,s2,s1
    800024f0:	00f4b023          	sd	a5,0(s1)
    800024f4:	12040073          	sfence.vma	s0
    800024f8:	fb1ff06f          	j	800024a8 <handle_fault+0x144>
    800024fc:	000a3683          	ld	a3,0(s4)
    80002500:	00813783          	ld	a5,8(sp)
    80002504:	00c6d693          	srl	a3,a3,0xc
    80002508:	00a69693          	sll	a3,a3,0xa
    8000250c:	00f6e6b3          	or	a3,a3,a5
    80002510:	efdff06f          	j	8000240c <handle_fault+0xa8>
    80002514:	0407e793          	or	a5,a5,64
    80002518:	fd1ff06f          	j	800024e8 <handle_fault+0x184>
    8000251c:	00009797          	auipc	a5,0x9
    80002520:	ae07b223          	sd	zero,-1308(a5) # 8000b000 <freelist_tail>
    80002524:	ec5ff06f          	j	800023e8 <handle_fault+0x84>
    80002528:	00002517          	auipc	a0,0x2
    8000252c:	18050513          	add	a0,a0,384 # 800046a8 <pass+0x14>
    80002530:	d21ff0ef          	jal	80002250 <cputstring>
    80002534:	00300513          	li	a0,3
    80002538:	d61ff0ef          	jal	80002298 <terminate>
    8000253c:	00002517          	auipc	a0,0x2
    80002540:	1b450513          	add	a0,a0,436 # 800046f0 <pass+0x5c>
    80002544:	d0dff0ef          	jal	80002250 <cputstring>
    80002548:	00300513          	li	a0,3
    8000254c:	d4dff0ef          	jal	80002298 <terminate>
    80002550:	00002517          	auipc	a0,0x2
    80002554:	1e850513          	add	a0,a0,488 # 80004738 <pass+0xa4>
    80002558:	cf9ff0ef          	jal	80002250 <cputstring>
    8000255c:	00300513          	li	a0,3
    80002560:	d39ff0ef          	jal	80002298 <terminate>
    80002564:	00002517          	auipc	a0,0x2
    80002568:	1ec50513          	add	a0,a0,492 # 80004750 <pass+0xbc>
    8000256c:	ce5ff0ef          	jal	80002250 <cputstring>
    80002570:	00300513          	li	a0,3
    80002574:	d25ff0ef          	jal	80002298 <terminate>

0000000080002578 <handle_trap>:
    80002578:	f8010113          	add	sp,sp,-128
    8000257c:	06813823          	sd	s0,112(sp)
    80002580:	06113c23          	sd	ra,120(sp)
    80002584:	06913423          	sd	s1,104(sp)
    80002588:	07213023          	sd	s2,96(sp)
    8000258c:	05313c23          	sd	s3,88(sp)
    80002590:	05413823          	sd	s4,80(sp)
    80002594:	05513423          	sd	s5,72(sp)
    80002598:	05613023          	sd	s6,64(sp)
    8000259c:	03713c23          	sd	s7,56(sp)
    800025a0:	03813823          	sd	s8,48(sp)
    800025a4:	03913423          	sd	s9,40(sp)
    800025a8:	03a13023          	sd	s10,32(sp)
    800025ac:	01b13c23          	sd	s11,24(sp)
    800025b0:	00050413          	mv	s0,a0
    800025b4:	448000ef          	jal	800029fc <trap_filter>
    800025b8:	0e051263          	bnez	a0,8000269c <handle_trap+0x124>
    800025bc:	11843583          	ld	a1,280(s0)
    800025c0:	00800793          	li	a5,8
    800025c4:	10f58063          	beq	a1,a5,800026c4 <handle_trap+0x14c>
    800025c8:	00200793          	li	a5,2
    800025cc:	06f58063          	beq	a1,a5,8000262c <handle_trap+0xb4>
    800025d0:	ff458793          	add	a5,a1,-12 # 3fff4 <_start-0x7ffc000c>
    800025d4:	00100713          	li	a4,1
    800025d8:	00f77663          	bgeu	a4,a5,800025e4 <handle_trap+0x6c>
    800025dc:	00f00793          	li	a5,15
    800025e0:	1ef59c63          	bne	a1,a5,800027d8 <handle_trap+0x260>
    800025e4:	11043503          	ld	a0,272(s0)
    800025e8:	d7dff0ef          	jal	80002364 <handle_fault>
    800025ec:	00040513          	mv	a0,s0
    800025f0:	07013403          	ld	s0,112(sp)
    800025f4:	07813083          	ld	ra,120(sp)
    800025f8:	06813483          	ld	s1,104(sp)
    800025fc:	06013903          	ld	s2,96(sp)
    80002600:	05813983          	ld	s3,88(sp)
    80002604:	05013a03          	ld	s4,80(sp)
    80002608:	04813a83          	ld	s5,72(sp)
    8000260c:	04013b03          	ld	s6,64(sp)
    80002610:	03813b83          	ld	s7,56(sp)
    80002614:	03013c03          	ld	s8,48(sp)
    80002618:	02813c83          	ld	s9,40(sp)
    8000261c:	02013d03          	ld	s10,32(sp)
    80002620:	01813d83          	ld	s11,24(sp)
    80002624:	08010113          	add	sp,sp,128
    80002628:	aa5fd06f          	j	800000cc <pop_tf>
    8000262c:	10843703          	ld	a4,264(s0)
    80002630:	00377793          	and	a5,a4,3
    80002634:	06079e63          	bnez	a5,800026b0 <handle_trap+0x138>
    80002638:	008007ef          	jal	a5,80002640 <handle_trap+0xc8>
    8000263c:	00301073          	fscsr	zero
    80002640:	00072703          	lw	a4,0(a4)
    80002644:	0007a783          	lw	a5,0(a5)
    80002648:	06f70063          	beq	a4,a5,800026a8 <handle_trap+0x130>
    8000264c:	10100513          	li	a0,257
    80002650:	04100793          	li	a5,65
    80002654:	00002697          	auipc	a3,0x2
    80002658:	13c68693          	add	a3,a3,316 # 80004790 <pass+0xfc>
    8000265c:	fffff717          	auipc	a4,0xfffff
    80002660:	9a470713          	add	a4,a4,-1628 # 80001000 <tohost>
    80002664:	03051513          	sll	a0,a0,0x30
    80002668:	00073583          	ld	a1,0(a4)
    8000266c:	00168693          	add	a3,a3,1
    80002670:	00a7e633          	or	a2,a5,a0
    80002674:	00058a63          	beqz	a1,80002688 <handle_trap+0x110>
    80002678:	fffff797          	auipc	a5,0xfffff
    8000267c:	9c07b423          	sd	zero,-1592(a5) # 80001040 <fromhost>
    80002680:	00073783          	ld	a5,0(a4)
    80002684:	fe079ae3          	bnez	a5,80002678 <handle_trap+0x100>
    80002688:	0006c783          	lbu	a5,0(a3)
    8000268c:	00c73023          	sd	a2,0(a4)
    80002690:	fc079ce3          	bnez	a5,80002668 <handle_trap+0xf0>
    80002694:	00300513          	li	a0,3
    80002698:	c01ff0ef          	jal	80002298 <terminate>
    8000269c:	00040513          	mv	a0,s0
    800026a0:	a2dfd0ef          	jal	800000cc <pop_tf>
    800026a4:	f19ff06f          	j	800025bc <handle_trap+0x44>
    800026a8:	00100513          	li	a0,1
    800026ac:	bedff0ef          	jal	80002298 <terminate>
    800026b0:	00002517          	auipc	a0,0x2
    800026b4:	18050513          	add	a0,a0,384 # 80004830 <pass+0x19c>
    800026b8:	b99ff0ef          	jal	80002250 <cputstring>
    800026bc:	00300513          	li	a0,3
    800026c0:	bd9ff0ef          	jal	80002298 <terminate>
    800026c4:	05042783          	lw	a5,80(s0)
    800026c8:	000014b7          	lui	s1,0x1
    800026cc:	00004a97          	auipc	s5,0x4
    800026d0:	934a8a93          	add	s5,s5,-1740 # 80006000 <user_mapping>
    800026d4:	00f13423          	sd	a5,8(sp)
    800026d8:	00005d17          	auipc	s10,0x5
    800026dc:	928d0d13          	add	s10,s10,-1752 # 80007000 <pt>
    800026e0:	00040cb7          	lui	s9,0x40
    800026e4:	ffe00c37          	lui	s8,0xffe00
    800026e8:	00009a17          	auipc	s4,0x9
    800026ec:	918a0a13          	add	s4,s4,-1768 # 8000b000 <freelist_tail>
    800026f0:	00009b97          	auipc	s7,0x9
    800026f4:	918b8b93          	add	s7,s7,-1768 # 8000b008 <freelist_head>
    800026f8:	0003fb37          	lui	s6,0x3f
    800026fc:	00c4d793          	srl	a5,s1,0xc
    80002700:	00479913          	sll	s2,a5,0x4
    80002704:	012a8733          	add	a4,s5,s2
    80002708:	00073703          	ld	a4,0(a4)
    8000270c:	08070c63          	beqz	a4,800027a4 <handle_trap+0x22c>
    80002710:	60078793          	add	a5,a5,1536
    80002714:	00379793          	sll	a5,a5,0x3
    80002718:	00fd07b3          	add	a5,s10,a5
    8000271c:	0007b983          	ld	s3,0(a5)
    80002720:	0409f793          	and	a5,s3,64
    80002724:	0a078063          	beqz	a5,800027c4 <handle_trap+0x24c>
    80002728:	100cadf3          	csrrs	s11,sstatus,s9
    8000272c:	01848433          	add	s0,s1,s8
    80002730:	00001637          	lui	a2,0x1
    80002734:	00040593          	mv	a1,s0
    80002738:	00048513          	mv	a0,s1
    8000273c:	9edff0ef          	jal	80002128 <memcmp>
    80002740:	04050463          	beqz	a0,80002788 <handle_trap+0x210>
    80002744:	0809f993          	and	s3,s3,128
    80002748:	0a098063          	beqz	s3,800027e8 <handle_trap+0x270>
    8000274c:	000016b7          	lui	a3,0x1
    80002750:	00048713          	mv	a4,s1
    80002754:	00040793          	mv	a5,s0
    80002758:	00d486b3          	add	a3,s1,a3
    8000275c:	00073803          	ld	a6,0(a4)
    80002760:	00873503          	ld	a0,8(a4)
    80002764:	01073583          	ld	a1,16(a4)
    80002768:	01873603          	ld	a2,24(a4)
    8000276c:	0107b023          	sd	a6,0(a5)
    80002770:	00a7b423          	sd	a0,8(a5)
    80002774:	00b7b823          	sd	a1,16(a5)
    80002778:	00c7bc23          	sd	a2,24(a5)
    8000277c:	02070713          	add	a4,a4,32
    80002780:	02078793          	add	a5,a5,32
    80002784:	fcd71ce3          	bne	a4,a3,8000275c <handle_trap+0x1e4>
    80002788:	012a87b3          	add	a5,s5,s2
    8000278c:	100d9073          	csrw	sstatus,s11
    80002790:	000a3703          	ld	a4,0(s4)
    80002794:	0007b023          	sd	zero,0(a5)
    80002798:	02070063          	beqz	a4,800027b8 <handle_trap+0x240>
    8000279c:	00f73423          	sd	a5,8(a4)
    800027a0:	00fa3023          	sd	a5,0(s4)
    800027a4:	000017b7          	lui	a5,0x1
    800027a8:	00f484b3          	add	s1,s1,a5
    800027ac:	f56498e3          	bne	s1,s6,800026fc <handle_trap+0x184>
    800027b0:	00813503          	ld	a0,8(sp)
    800027b4:	ae5ff0ef          	jal	80002298 <terminate>
    800027b8:	00fa3023          	sd	a5,0(s4)
    800027bc:	00fbb023          	sd	a5,0(s7)
    800027c0:	fe5ff06f          	j	800027a4 <handle_trap+0x22c>
    800027c4:	00002517          	auipc	a0,0x2
    800027c8:	ffc50513          	add	a0,a0,-4 # 800047c0 <pass+0x12c>
    800027cc:	a85ff0ef          	jal	80002250 <cputstring>
    800027d0:	00300513          	li	a0,3
    800027d4:	ac5ff0ef          	jal	80002298 <terminate>
    800027d8:	00002517          	auipc	a0,0x2
    800027dc:	08050513          	add	a0,a0,128 # 80004858 <pass+0x1c4>
    800027e0:	a71ff0ef          	jal	80002250 <cputstring>
    800027e4:	eb1ff06f          	j	80002694 <handle_trap+0x11c>
    800027e8:	00002517          	auipc	a0,0x2
    800027ec:	01050513          	add	a0,a0,16 # 800047f8 <pass+0x164>
    800027f0:	a61ff0ef          	jal	80002250 <cputstring>
    800027f4:	00300513          	li	a0,3
    800027f8:	aa1ff0ef          	jal	80002298 <terminate>

00000000800027fc <vm_boot>:
    800027fc:	f14027f3          	csrr	a5,mhartid
    80002800:	18079a63          	bnez	a5,80002994 <vm_boot+0x198>
    80002804:	00006797          	auipc	a5,0x6
    80002808:	7fc78793          	add	a5,a5,2044 # 80009000 <pt+0x2000>
    8000280c:	ed010113          	add	sp,sp,-304
    80002810:	00c7d793          	srl	a5,a5,0xc
    80002814:	12813023          	sd	s0,288(sp)
    80002818:	00007817          	auipc	a6,0x7
    8000281c:	7e880813          	add	a6,a6,2024 # 8000a000 <pt+0x3000>
    80002820:	00050413          	mv	s0,a0
    80002824:	00a79793          	sll	a5,a5,0xa
    80002828:	00005517          	auipc	a0,0x5
    8000282c:	7d850513          	add	a0,a0,2008 # 80008000 <pt+0x1000>
    80002830:	12113423          	sd	ra,296(sp)
    80002834:	00c55693          	srl	a3,a0,0xc
    80002838:	00c85713          	srl	a4,a6,0xc
    8000283c:	0017e793          	or	a5,a5,1
    80002840:	00004897          	auipc	a7,0x4
    80002844:	7c088893          	add	a7,a7,1984 # 80007000 <pt>
    80002848:	fff00613          	li	a2,-1
    8000284c:	fef53c23          	sd	a5,-8(a0)
    80002850:	00a69693          	sll	a3,a3,0xa
    80002854:	00a71713          	sll	a4,a4,0xa
    80002858:	200007b7          	lui	a5,0x20000
    8000285c:	0016e693          	or	a3,a3,1
    80002860:	00176713          	or	a4,a4,1
    80002864:	00c8d593          	srl	a1,a7,0xc
    80002868:	03f61313          	sll	t1,a2,0x3f
    8000286c:	0cf78793          	add	a5,a5,207 # 200000cf <_start-0x5fffff31>
    80002870:	fef83c23          	sd	a5,-8(a6)
    80002874:	00d8b023          	sd	a3,0(a7)
    80002878:	00e53023          	sd	a4,0(a0)
    8000287c:	0065e7b3          	or	a5,a1,t1
    80002880:	18079073          	csrw	satp,a5
    80002884:	18002773          	csrr	a4,satp
    80002888:	14e79e63          	bne	a5,a4,800029e4 <vm_boot+0x1e8>
    8000288c:	00b65613          	srl	a2,a2,0xb
    80002890:	01f00793          	li	a5,31
    80002894:	00000297          	auipc	t0,0x0
    80002898:	01428293          	add	t0,t0,20 # 800028a8 <vm_boot+0xac>
    8000289c:	305292f3          	csrrw	t0,mtvec,t0
    800028a0:	3b061073          	csrw	pmpaddr0,a2
    800028a4:	3a079073          	csrw	pmpcfg0,a5
    800028a8:	30529073          	csrw	mtvec,t0
    800028ac:	bff00813          	li	a6,-1025
    800028b0:	01581813          	sll	a6,a6,0x15
    800028b4:	ffffe797          	auipc	a5,0xffffe
    800028b8:	8a078793          	add	a5,a5,-1888 # 80000154 <trap_entry>
    800028bc:	010787b3          	add	a5,a5,a6
    800028c0:	10579073          	csrw	stvec,a5
    800028c4:	340027f3          	csrr	a5,mscratch
    800028c8:	010787b3          	add	a5,a5,a6
    800028cc:	14079073          	csrw	sscratch,a5
    800028d0:	0000b7b7          	lui	a5,0xb
    800028d4:	1007879b          	addw	a5,a5,256 # b100 <_start-0x7fff4f00>
    800028d8:	30279073          	csrw	medeleg,a5
    800028dc:	0001e7b7          	lui	a5,0x1e
    800028e0:	6007879b          	addw	a5,a5,1536 # 1e600 <_start-0x7ffe1a00>
    800028e4:	30079073          	csrw	mstatus,a5
    800028e8:	30405073          	csrw	mie,0
    800028ec:	00004717          	auipc	a4,0x4
    800028f0:	b0470713          	add	a4,a4,-1276 # 800063f0 <freelist_nodes>
    800028f4:	3e080793          	add	a5,a6,992
    800028f8:	010706b3          	add	a3,a4,a6
    800028fc:	00f707b3          	add	a5,a4,a5
    80002900:	000808b7          	lui	a7,0x80
    80002904:	00008617          	auipc	a2,0x8
    80002908:	70d63223          	sd	a3,1796(a2) # 8000b008 <freelist_head>
    8000290c:	00004317          	auipc	t1,0x4
    80002910:	ed430313          	add	t1,t1,-300 # 800067e0 <freelist_nodes+0x3f0>
    80002914:	00008697          	auipc	a3,0x8
    80002918:	6ef6b623          	sd	a5,1772(a3) # 8000b000 <freelist_tail>
    8000291c:	03f88893          	add	a7,a7,63 # 8003f <_start-0x7ff7ffc1>
    80002920:	00e00793          	li	a5,14
    80002924:	01080813          	add	a6,a6,16
    80002928:	0017d613          	srl	a2,a5,0x1
    8000292c:	011786b3          	add	a3,a5,a7
    80002930:	00f647b3          	xor	a5,a2,a5
    80002934:	010705b3          	add	a1,a4,a6
    80002938:	00c69693          	sll	a3,a3,0xc
    8000293c:	00579793          	sll	a5,a5,0x5
    80002940:	00d73023          	sd	a3,0(a4)
    80002944:	00b73423          	sd	a1,8(a4)
    80002948:	0207f793          	and	a5,a5,32
    8000294c:	01070713          	add	a4,a4,16
    80002950:	00f667b3          	or	a5,a2,a5
    80002954:	fce31ae3          	bne	t1,a4,80002928 <vm_boot+0x12c>
    80002958:	12000613          	li	a2,288
    8000295c:	00000593          	li	a1,0
    80002960:	00010513          	mv	a0,sp
    80002964:	00004797          	auipc	a5,0x4
    80002968:	e607ba23          	sd	zero,-396(a5) # 800067d8 <freelist_nodes+0x3e8>
    8000296c:	ef0ff0ef          	jal	8000205c <memset>
    80002970:	800007b7          	lui	a5,0x80000
    80002974:	00f40433          	add	s0,s0,a5
    80002978:	00010513          	mv	a0,sp
    8000297c:	10813423          	sd	s0,264(sp)
    80002980:	f4cfd0ef          	jal	800000cc <pop_tf>
    80002984:	12813083          	ld	ra,296(sp)
    80002988:	12013403          	ld	s0,288(sp)
    8000298c:	13010113          	add	sp,sp,304
    80002990:	00008067          	ret
    80002994:	00100713          	li	a4,1
    80002998:	006367b7          	lui	a5,0x636
    8000299c:	00080637          	lui	a2,0x80
    800029a0:	3ee78793          	add	a5,a5,1006 # 6363ee <_start-0x7f9c9c12>
    800029a4:	ffc60613          	add	a2,a2,-4 # 7fffc <_start-0x7ff80004>
    800029a8:	01f71513          	sll	a0,a4,0x1f
    800029ac:	03e71693          	sll	a3,a4,0x3e
    800029b0:	01c0006f          	j	800029cc <vm_boot+0x1d0>
    800029b4:	0007202f          	amoadd.w	zero,zero,(a4)
    800029b8:	0017d713          	srl	a4,a5,0x1
    800029bc:	00e7c7b3          	xor	a5,a5,a4
    800029c0:	03e79793          	sll	a5,a5,0x3e
    800029c4:	00d7f7b3          	and	a5,a5,a3
    800029c8:	00e7e7b3          	or	a5,a5,a4
    800029cc:	00c7f733          	and	a4,a5,a2
    800029d0:	0017f593          	and	a1,a5,1
    800029d4:	00a70733          	add	a4,a4,a0
    800029d8:	fc059ee3          	bnez	a1,800029b4 <vm_boot+0x1b8>
    800029dc:	00072003          	lw	zero,0(a4)
    800029e0:	fd9ff06f          	j	800029b8 <vm_boot+0x1bc>
    800029e4:	00002517          	auipc	a0,0x2
    800029e8:	ea450513          	add	a0,a0,-348 # 80004888 <pass+0x1f4>
    800029ec:	865ff0ef          	jal	80002250 <cputstring>
    800029f0:	00300513          	li	a0,3
    800029f4:	8a5ff0ef          	jal	80002298 <terminate>

00000000800029f8 <extra_boot>:
    800029f8:	00008067          	ret

00000000800029fc <trap_filter>:
    800029fc:	00000513          	li	a0,0
    80002a00:	00008067          	ret

0000000080002a04 <pf_filter>:
    80002a04:	00000513          	li	a0,0
    80002a08:	00008067          	ret

0000000080002a0c <userstart>:
    80002a0c:	00002417          	auipc	s0,0x2
    80002a10:	5f440413          	add	s0,s0,1524 # 80005000 <begin_signature>
    80002a14:	00100193          	li	gp,1
    80002a18:	20100313          	li	t1,513
    80002a1c:	00141383          	lh	t2,1(s0)
    80002a20:	00730463          	beq	t1,t2,80002a28 <userstart+0x1c>
    80002a24:	4610106f          	j	80004684 <fail>
    80002a28:	00200193          	li	gp,2
    80002a2c:	20100313          	li	t1,513
    80002a30:	00145383          	lhu	t2,1(s0)
    80002a34:	00730463          	beq	t1,t2,80002a3c <userstart+0x30>
    80002a38:	44d0106f          	j	80004684 <fail>
    80002a3c:	00300193          	li	gp,3
    80002a40:	04030337          	lui	t1,0x4030
    80002a44:	2013031b          	addw	t1,t1,513 # 4030201 <_start-0x7bfcfdff>
    80002a48:	00142383          	lw	t2,1(s0)
    80002a4c:	00730463          	beq	t1,t2,80002a54 <userstart+0x48>
    80002a50:	4350106f          	j	80004684 <fail>
    80002a54:	00400193          	li	gp,4
    80002a58:	05040337          	lui	t1,0x5040
    80002a5c:	3023031b          	addw	t1,t1,770 # 5040302 <_start-0x7afbfcfe>
    80002a60:	00242383          	lw	t2,2(s0)
    80002a64:	00730463          	beq	t1,t2,80002a6c <userstart+0x60>
    80002a68:	41d0106f          	j	80004684 <fail>
    80002a6c:	00500193          	li	gp,5
    80002a70:	06050337          	lui	t1,0x6050
    80002a74:	4033031b          	addw	t1,t1,1027 # 6050403 <_start-0x79fafbfd>
    80002a78:	00342383          	lw	t2,3(s0)
    80002a7c:	00730463          	beq	t1,t2,80002a84 <userstart+0x78>
    80002a80:	4050106f          	j	80004684 <fail>
    80002a84:	00600193          	li	gp,6
    80002a88:	04030337          	lui	t1,0x4030
    80002a8c:	2013031b          	addw	t1,t1,513 # 4030201 <_start-0x7bfcfdff>
    80002a90:	00146383          	lwu	t2,1(s0)
    80002a94:	00730463          	beq	t1,t2,80002a9c <userstart+0x90>
    80002a98:	3ed0106f          	j	80004684 <fail>
    80002a9c:	00700193          	li	gp,7
    80002aa0:	05040337          	lui	t1,0x5040
    80002aa4:	3023031b          	addw	t1,t1,770 # 5040302 <_start-0x7afbfcfe>
    80002aa8:	00246383          	lwu	t2,2(s0)
    80002aac:	00730463          	beq	t1,t2,80002ab4 <userstart+0xa8>
    80002ab0:	3d50106f          	j	80004684 <fail>
    80002ab4:	00800193          	li	gp,8
    80002ab8:	06050337          	lui	t1,0x6050
    80002abc:	4033031b          	addw	t1,t1,1027 # 6050403 <_start-0x79fafbfd>
    80002ac0:	00346383          	lwu	t2,3(s0)
    80002ac4:	00730463          	beq	t1,t2,80002acc <userstart+0xc0>
    80002ac8:	3bd0106f          	j	80004684 <fail>
    80002acc:	00900193          	li	gp,9
    80002ad0:	08070337          	lui	t1,0x8070
    80002ad4:	6053031b          	addw	t1,t1,1541 # 8070605 <_start-0x77f8f9fb>
    80002ad8:	01031313          	sll	t1,t1,0x10
    80002adc:	40330313          	add	t1,t1,1027
    80002ae0:	01031313          	sll	t1,t1,0x10
    80002ae4:	20130313          	add	t1,t1,513
    80002ae8:	00143383          	ld	t2,1(s0)
    80002aec:	00730463          	beq	t1,t2,80002af4 <userstart+0xe8>
    80002af0:	3950106f          	j	80004684 <fail>
    80002af4:	00a00193          	li	gp,10
    80002af8:	04840337          	lui	t1,0x4840
    80002afc:	3833031b          	addw	t1,t1,899 # 4840383 <_start-0x7b7bfc7d>
    80002b00:	00f31313          	sll	t1,t1,0xf
    80002b04:	14130313          	add	t1,t1,321
    80002b08:	01231313          	sll	t1,t1,0x12
    80002b0c:	30230313          	add	t1,t1,770
    80002b10:	00243383          	ld	t2,2(s0)
    80002b14:	00730463          	beq	t1,t2,80002b1c <userstart+0x110>
    80002b18:	36d0106f          	j	80004684 <fail>
    80002b1c:	00b00193          	li	gp,11
    80002b20:	0a091337          	lui	t1,0xa091
    80002b24:	8073031b          	addw	t1,t1,-2041 # a090807 <_start-0x75f6f7f9>
    80002b28:	01031313          	sll	t1,t1,0x10
    80002b2c:	60530313          	add	t1,t1,1541
    80002b30:	01031313          	sll	t1,t1,0x10
    80002b34:	40330313          	add	t1,t1,1027
    80002b38:	00343383          	ld	t2,3(s0)
    80002b3c:	00730463          	beq	t1,t2,80002b44 <userstart+0x138>
    80002b40:	3450106f          	j	80004684 <fail>
    80002b44:	00c00193          	li	gp,12
    80002b48:	01614337          	lui	t1,0x1614
    80002b4c:	1213031b          	addw	t1,t1,289 # 1614121 <_start-0x7e9ebedf>
    80002b50:	01231313          	sll	t1,t1,0x12
    80002b54:	38330313          	add	t1,t1,899
    80002b58:	01131313          	sll	t1,t1,0x11
    80002b5c:	50430313          	add	t1,t1,1284
    80002b60:	00443383          	ld	t2,4(s0)
    80002b64:	00730463          	beq	t1,t2,80002b6c <userstart+0x160>
    80002b68:	31d0106f          	j	80004684 <fail>
    80002b6c:	00d00193          	li	gp,13
    80002b70:	00060337          	lui	t1,0x60
    80002b74:	5853031b          	addw	t1,t1,1413 # 60585 <_start-0x7ff9fa7b>
    80002b78:	00d31313          	sll	t1,t1,0xd
    80002b7c:	09130313          	add	t1,t1,145
    80002b80:	00c31313          	sll	t1,t1,0xc
    80002b84:	80730313          	add	t1,t1,-2041
    80002b88:	01031313          	sll	t1,t1,0x10
    80002b8c:	60530313          	add	t1,t1,1541
    80002b90:	00543383          	ld	t2,5(s0)
    80002b94:	00730463          	beq	t1,t2,80002b9c <userstart+0x190>
    80002b98:	2ed0106f          	j	80004684 <fail>
    80002b9c:	00e00193          	li	gp,14
    80002ba0:	06860337          	lui	t1,0x6860
    80002ba4:	5853031b          	addw	t1,t1,1413 # 6860585 <_start-0x7979fa7b>
    80002ba8:	00e31313          	sll	t1,t1,0xe
    80002bac:	12130313          	add	t1,t1,289
    80002bb0:	01331313          	sll	t1,t1,0x13
    80002bb4:	70630313          	add	t1,t1,1798
    80002bb8:	00643383          	ld	t2,6(s0)
    80002bbc:	00730463          	beq	t1,t2,80002bc4 <userstart+0x1b8>
    80002bc0:	2c50106f          	j	80004684 <fail>
    80002bc4:	00f00193          	li	gp,15
    80002bc8:	00038337          	lui	t1,0x38
    80002bcc:	3433031b          	addw	t1,t1,835 # 38343 <_start-0x7ffc7cbd>
    80002bd0:	01131313          	sll	t1,t1,0x11
    80002bd4:	58530313          	add	t1,t1,1413
    80002bd8:	00d31313          	sll	t1,t1,0xd
    80002bdc:	09130313          	add	t1,t1,145
    80002be0:	00c31313          	sll	t1,t1,0xc
    80002be4:	80730313          	add	t1,t1,-2041
    80002be8:	00743383          	ld	t2,7(s0)
    80002bec:	00730463          	beq	t1,t2,80002bf4 <userstart+0x1e8>
    80002bf0:	2950106f          	j	80004684 <fail>
    80002bf4:	01000193          	li	gp,16
    80002bf8:	00002337          	lui	t1,0x2
    80002bfc:	01f3031b          	addw	t1,t1,31 # 201f <_start-0x7fffdfe1>
    80002c00:	01f41383          	lh	t2,31(s0)
    80002c04:	00730463          	beq	t1,t2,80002c0c <userstart+0x200>
    80002c08:	27d0106f          	j	80004684 <fail>
    80002c0c:	01100193          	li	gp,17
    80002c10:	00002337          	lui	t1,0x2
    80002c14:	01f3031b          	addw	t1,t1,31 # 201f <_start-0x7fffdfe1>
    80002c18:	01f45383          	lhu	t2,31(s0)
    80002c1c:	00730463          	beq	t1,t2,80002c24 <userstart+0x218>
    80002c20:	2650106f          	j	80004684 <fail>
    80002c24:	01200193          	li	gp,18
    80002c28:	201f2337          	lui	t1,0x201f2
    80002c2c:	e1d3031b          	addw	t1,t1,-483 # 201f1e1d <_start-0x5fe0e1e3>
    80002c30:	01d42383          	lw	t2,29(s0)
    80002c34:	00730463          	beq	t1,t2,80002c3c <userstart+0x230>
    80002c38:	24d0106f          	j	80004684 <fail>
    80002c3c:	01300193          	li	gp,19
    80002c40:	21202337          	lui	t1,0x21202
    80002c44:	f1e3031b          	addw	t1,t1,-226 # 21201f1e <_start-0x5edfe0e2>
    80002c48:	01e42383          	lw	t2,30(s0)
    80002c4c:	00730463          	beq	t1,t2,80002c54 <userstart+0x248>
    80002c50:	2350106f          	j	80004684 <fail>
    80002c54:	01400193          	li	gp,20
    80002c58:	22212337          	lui	t1,0x22212
    80002c5c:	01f3031b          	addw	t1,t1,31 # 2221201f <_start-0x5ddedfe1>
    80002c60:	01f42383          	lw	t2,31(s0)
    80002c64:	00730463          	beq	t1,t2,80002c6c <userstart+0x260>
    80002c68:	21d0106f          	j	80004684 <fail>
    80002c6c:	01500193          	li	gp,21
    80002c70:	201f2337          	lui	t1,0x201f2
    80002c74:	e1d3031b          	addw	t1,t1,-483 # 201f1e1d <_start-0x5fe0e1e3>
    80002c78:	01d46383          	lwu	t2,29(s0)
    80002c7c:	00730463          	beq	t1,t2,80002c84 <userstart+0x278>
    80002c80:	2050106f          	j	80004684 <fail>
    80002c84:	01600193          	li	gp,22
    80002c88:	21202337          	lui	t1,0x21202
    80002c8c:	f1e3031b          	addw	t1,t1,-226 # 21201f1e <_start-0x5edfe0e2>
    80002c90:	01e46383          	lwu	t2,30(s0)
    80002c94:	00730463          	beq	t1,t2,80002c9c <userstart+0x290>
    80002c98:	1ed0106f          	j	80004684 <fail>
    80002c9c:	01700193          	li	gp,23
    80002ca0:	22212337          	lui	t1,0x22212
    80002ca4:	01f3031b          	addw	t1,t1,31 # 2221201f <_start-0x5ddedfe1>
    80002ca8:	01f46383          	lwu	t2,31(s0)
    80002cac:	00730463          	beq	t1,t2,80002cb4 <userstart+0x2a8>
    80002cb0:	1d50106f          	j	80004684 <fail>
    80002cb4:	01800193          	li	gp,24
    80002cb8:	00101337          	lui	t1,0x101
    80002cbc:	f8f3031b          	addw	t1,t1,-113 # 100f8f <_start-0x7feff071>
    80002cc0:	00f31313          	sll	t1,t1,0xf
    80002cc4:	74730313          	add	t1,t1,1863
    80002cc8:	00d31313          	sll	t1,t1,0xd
    80002ccc:	0d930313          	add	t1,t1,217
    80002cd0:	00d31313          	sll	t1,t1,0xd
    80002cd4:	a1930313          	add	t1,t1,-1511
    80002cd8:	01943383          	ld	t2,25(s0)
    80002cdc:	00730463          	beq	t1,t2,80002ce4 <userstart+0x2d8>
    80002ce0:	1a50106f          	j	80004684 <fail>
    80002ce4:	01900193          	li	gp,25
    80002ce8:	01090337          	lui	t1,0x1090
    80002cec:	0f93031b          	addw	t1,t1,249 # 10900f9 <_start-0x7ef6ff07>
    80002cf0:	00c31313          	sll	t1,t1,0xc
    80002cf4:	f0f30313          	add	t1,t1,-241
    80002cf8:	00c31313          	sll	t1,t1,0xc
    80002cfc:	8e130313          	add	t1,t1,-1823
    80002d00:	00d31313          	sll	t1,t1,0xd
    80002d04:	b1a30313          	add	t1,t1,-1254
    80002d08:	01a43383          	ld	t2,26(s0)
    80002d0c:	00730463          	beq	t1,t2,80002d14 <userstart+0x308>
    80002d10:	1750106f          	j	80004684 <fail>
    80002d14:	01a00193          	li	gp,26
    80002d18:	01111337          	lui	t1,0x1111
    80002d1c:	9013031b          	addw	t1,t1,-1791 # 1110901 <_start-0x7eeef6ff>
    80002d20:	00c31313          	sll	t1,t1,0xc
    80002d24:	f8f30313          	add	t1,t1,-113
    80002d28:	00c31313          	sll	t1,t1,0xc
    80002d2c:	0e930313          	add	t1,t1,233
    80002d30:	00d31313          	sll	t1,t1,0xd
    80002d34:	c1b30313          	add	t1,t1,-997
    80002d38:	01b43383          	ld	t2,27(s0)
    80002d3c:	00730463          	beq	t1,t2,80002d44 <userstart+0x338>
    80002d40:	1450106f          	j	80004684 <fail>
    80002d44:	01b00193          	li	gp,27
    80002d48:	00119337          	lui	t1,0x119
    80002d4c:	1113031b          	addw	t1,t1,273 # 119111 <_start-0x7fee6eef>
    80002d50:	00c31313          	sll	t1,t1,0xc
    80002d54:	90130313          	add	t1,t1,-1791
    80002d58:	01031313          	sll	t1,t1,0x10
    80002d5c:	8f130313          	add	t1,t1,-1807
    80002d60:	00d31313          	sll	t1,t1,0xd
    80002d64:	d1c30313          	add	t1,t1,-740
    80002d68:	01c43383          	ld	t2,28(s0)
    80002d6c:	00730463          	beq	t1,t2,80002d74 <userstart+0x368>
    80002d70:	1150106f          	j	80004684 <fail>
    80002d74:	01c00193          	li	gp,28
    80002d78:	00121337          	lui	t1,0x121
    80002d7c:	1913031b          	addw	t1,t1,401 # 121191 <_start-0x7fedee6f>
    80002d80:	00c31313          	sll	t1,t1,0xc
    80002d84:	10930313          	add	t1,t1,265
    80002d88:	01031313          	sll	t1,t1,0x10
    80002d8c:	0f930313          	add	t1,t1,249
    80002d90:	00d31313          	sll	t1,t1,0xd
    80002d94:	e1d30313          	add	t1,t1,-483
    80002d98:	01d43383          	ld	t2,29(s0)
    80002d9c:	00730463          	beq	t1,t2,80002da4 <userstart+0x398>
    80002da0:	0e50106f          	j	80004684 <fail>
    80002da4:	01d00193          	li	gp,29
    80002da8:	01292337          	lui	t1,0x1292
    80002dac:	1193031b          	addw	t1,t1,281 # 1292119 <_start-0x7ed6dee7>
    80002db0:	00c31313          	sll	t1,t1,0xc
    80002db4:	11130313          	add	t1,t1,273
    80002db8:	00c31313          	sll	t1,t1,0xc
    80002dbc:	90130313          	add	t1,t1,-1791
    80002dc0:	00d31313          	sll	t1,t1,0xd
    80002dc4:	f1e30313          	add	t1,t1,-226
    80002dc8:	01e43383          	ld	t2,30(s0)
    80002dcc:	00730463          	beq	t1,t2,80002dd4 <userstart+0x3c8>
    80002dd0:	0b50106f          	j	80004684 <fail>
    80002dd4:	01e00193          	li	gp,30
    80002dd8:	01313337          	lui	t1,0x1313
    80002ddc:	9213031b          	addw	t1,t1,-1759 # 1312921 <_start-0x7eced6df>
    80002de0:	00c31313          	sll	t1,t1,0xc
    80002de4:	19130313          	add	t1,t1,401
    80002de8:	00c31313          	sll	t1,t1,0xc
    80002dec:	10930313          	add	t1,t1,265
    80002df0:	00d31313          	sll	t1,t1,0xd
    80002df4:	01f30313          	add	t1,t1,31
    80002df8:	01f43383          	ld	t2,31(s0)
    80002dfc:	00730463          	beq	t1,t2,80002e04 <userstart+0x3f8>
    80002e00:	0850106f          	j	80004684 <fail>
    80002e04:	01f00193          	li	gp,31
    80002e08:	00004337          	lui	t1,0x4
    80002e0c:	03f3031b          	addw	t1,t1,63 # 403f <_start-0x7fffbfc1>
    80002e10:	03f41383          	lh	t2,63(s0)
    80002e14:	00730463          	beq	t1,t2,80002e1c <userstart+0x410>
    80002e18:	06d0106f          	j	80004684 <fail>
    80002e1c:	02000193          	li	gp,32
    80002e20:	00004337          	lui	t1,0x4
    80002e24:	03f3031b          	addw	t1,t1,63 # 403f <_start-0x7fffbfc1>
    80002e28:	03f45383          	lhu	t2,63(s0)
    80002e2c:	00730463          	beq	t1,t2,80002e34 <userstart+0x428>
    80002e30:	0550106f          	j	80004684 <fail>
    80002e34:	02100193          	li	gp,33
    80002e38:	403f4337          	lui	t1,0x403f4
    80002e3c:	e3d3031b          	addw	t1,t1,-451 # 403f3e3d <_start-0x3fc0c1c3>
    80002e40:	03d42383          	lw	t2,61(s0)
    80002e44:	00730463          	beq	t1,t2,80002e4c <userstart+0x440>
    80002e48:	03d0106f          	j	80004684 <fail>
    80002e4c:	02200193          	li	gp,34
    80002e50:	41404337          	lui	t1,0x41404
    80002e54:	f3e3031b          	addw	t1,t1,-194 # 41403f3e <_start-0x3ebfc0c2>
    80002e58:	03e42383          	lw	t2,62(s0)
    80002e5c:	00730463          	beq	t1,t2,80002e64 <userstart+0x458>
    80002e60:	0250106f          	j	80004684 <fail>
    80002e64:	02300193          	li	gp,35
    80002e68:	42414337          	lui	t1,0x42414
    80002e6c:	03f3031b          	addw	t1,t1,63 # 4241403f <_start-0x3dbebfc1>
    80002e70:	03f42383          	lw	t2,63(s0)
    80002e74:	00730463          	beq	t1,t2,80002e7c <userstart+0x470>
    80002e78:	00d0106f          	j	80004684 <fail>
    80002e7c:	02400193          	li	gp,36
    80002e80:	403f4337          	lui	t1,0x403f4
    80002e84:	e3d3031b          	addw	t1,t1,-451 # 403f3e3d <_start-0x3fc0c1c3>
    80002e88:	03d46383          	lwu	t2,61(s0)
    80002e8c:	00730463          	beq	t1,t2,80002e94 <userstart+0x488>
    80002e90:	7f40106f          	j	80004684 <fail>
    80002e94:	02500193          	li	gp,37
    80002e98:	41404337          	lui	t1,0x41404
    80002e9c:	f3e3031b          	addw	t1,t1,-194 # 41403f3e <_start-0x3ebfc0c2>
    80002ea0:	03e46383          	lwu	t2,62(s0)
    80002ea4:	00730463          	beq	t1,t2,80002eac <userstart+0x4a0>
    80002ea8:	7dc0106f          	j	80004684 <fail>
    80002eac:	02600193          	li	gp,38
    80002eb0:	42414337          	lui	t1,0x42414
    80002eb4:	03f3031b          	addw	t1,t1,63 # 4241403f <_start-0x3dbebfc1>
    80002eb8:	03f46383          	lwu	t2,63(s0)
    80002ebc:	00730463          	beq	t1,t2,80002ec4 <userstart+0x4b8>
    80002ec0:	7c40106f          	j	80004684 <fail>
    80002ec4:	02700193          	li	gp,39
    80002ec8:	01010337          	lui	t1,0x1010
    80002ecc:	cf93031b          	addw	t1,t1,-775 # 100fcf9 <_start-0x7eff0307>
    80002ed0:	00c31313          	sll	t1,t1,0xc
    80002ed4:	f4f30313          	add	t1,t1,-177
    80002ed8:	00c31313          	sll	t1,t1,0xc
    80002edc:	0ed30313          	add	t1,t1,237
    80002ee0:	00e31313          	sll	t1,t1,0xe
    80002ee4:	a3930313          	add	t1,t1,-1479
    80002ee8:	03943383          	ld	t2,57(s0)
    80002eec:	00730463          	beq	t1,t2,80002ef4 <userstart+0x4e8>
    80002ef0:	7940106f          	j	80004684 <fail>
    80002ef4:	02800193          	li	gp,40
    80002ef8:	01050337          	lui	t1,0x1050
    80002efc:	0fd3031b          	addw	t1,t1,253 # 10500fd <_start-0x7efaff03>
    80002f00:	00c31313          	sll	t1,t1,0xc
    80002f04:	f8f30313          	add	t1,t1,-113
    80002f08:	00c31313          	sll	t1,t1,0xc
    80002f0c:	4f130313          	add	t1,t1,1265
    80002f10:	00e31313          	sll	t1,t1,0xe
    80002f14:	b3a30313          	add	t1,t1,-1222
    80002f18:	03a43383          	ld	t2,58(s0)
    80002f1c:	00730463          	beq	t1,t2,80002f24 <userstart+0x518>
    80002f20:	7640106f          	j	80004684 <fail>
    80002f24:	02900193          	li	gp,41
    80002f28:	00011337          	lui	t1,0x11
    80002f2c:	9053031b          	addw	t1,t1,-1787 # 10905 <_start-0x7ffef6fb>
    80002f30:	01031313          	sll	t1,t1,0x10
    80002f34:	0fd30313          	add	t1,t1,253
    80002f38:	01031313          	sll	t1,t1,0x10
    80002f3c:	8f530313          	add	t1,t1,-1803
    80002f40:	00e31313          	sll	t1,t1,0xe
    80002f44:	c3b30313          	add	t1,t1,-965
    80002f48:	03b43383          	ld	t2,59(s0)
    80002f4c:	00730463          	beq	t1,t2,80002f54 <userstart+0x548>
    80002f50:	7340106f          	j	80004684 <fail>
    80002f54:	02a00193          	li	gp,42
    80002f58:	00011337          	lui	t1,0x11
    80002f5c:	d093031b          	addw	t1,t1,-759 # 10d09 <_start-0x7ffef2f7>
    80002f60:	01031313          	sll	t1,t1,0x10
    80002f64:	50130313          	add	t1,t1,1281
    80002f68:	01031313          	sll	t1,t1,0x10
    80002f6c:	cf930313          	add	t1,t1,-775
    80002f70:	00e31313          	sll	t1,t1,0xe
    80002f74:	d3c30313          	add	t1,t1,-708
    80002f78:	03c43383          	ld	t2,60(s0)
    80002f7c:	00730463          	beq	t1,t2,80002f84 <userstart+0x578>
    80002f80:	7040106f          	j	80004684 <fail>
    80002f84:	02b00193          	li	gp,43
    80002f88:	00111337          	lui	t1,0x111
    80002f8c:	0d13031b          	addw	t1,t1,209 # 1110d1 <_start-0x7feeef2f>
    80002f90:	00c31313          	sll	t1,t1,0xc
    80002f94:	90530313          	add	t1,t1,-1787
    80002f98:	01031313          	sll	t1,t1,0x10
    80002f9c:	0fd30313          	add	t1,t1,253
    80002fa0:	00e31313          	sll	t1,t1,0xe
    80002fa4:	e3d30313          	add	t1,t1,-451
    80002fa8:	03d43383          	ld	t2,61(s0)
    80002fac:	00730463          	beq	t1,t2,80002fb4 <userstart+0x5a8>
    80002fb0:	6d40106f          	j	80004684 <fail>
    80002fb4:	02c00193          	li	gp,44
    80002fb8:	00115337          	lui	t1,0x115
    80002fbc:	1113031b          	addw	t1,t1,273 # 115111 <_start-0x7feeaeef>
    80002fc0:	00c31313          	sll	t1,t1,0xc
    80002fc4:	d0930313          	add	t1,t1,-759
    80002fc8:	01031313          	sll	t1,t1,0x10
    80002fcc:	50130313          	add	t1,t1,1281
    80002fd0:	00e31313          	sll	t1,t1,0xe
    80002fd4:	f3e30313          	add	t1,t1,-194
    80002fd8:	03e43383          	ld	t2,62(s0)
    80002fdc:	00730463          	beq	t1,t2,80002fe4 <userstart+0x5d8>
    80002fe0:	6a40106f          	j	80004684 <fail>
    80002fe4:	02d00193          	li	gp,45
    80002fe8:	01191337          	lui	t1,0x1191
    80002fec:	5113031b          	addw	t1,t1,1297 # 1191511 <_start-0x7ee6eaef>
    80002ff0:	00c31313          	sll	t1,t1,0xc
    80002ff4:	0d130313          	add	t1,t1,209
    80002ff8:	00c31313          	sll	t1,t1,0xc
    80002ffc:	90530313          	add	t1,t1,-1787
    80003000:	00e31313          	sll	t1,t1,0xe
    80003004:	03f30313          	add	t1,t1,63
    80003008:	03f43383          	ld	t2,63(s0)
    8000300c:	00730463          	beq	t1,t2,80003014 <userstart+0x608>
    80003010:	6740106f          	j	80004684 <fail>
    80003014:	02e00193          	li	gp,46
    80003018:	ffff8337          	lui	t1,0xffff8
    8000301c:	1803031b          	addw	t1,t1,384 # ffffffffffff8180 <freelist_head+0xffffffff7ffed178>
    80003020:	006410a3          	sh	t1,1(s0)
    80003024:	00141383          	lh	t2,1(s0)
    80003028:	00730463          	beq	t1,t2,80003030 <userstart+0x624>
    8000302c:	6580106f          	j	80004684 <fail>
    80003030:	02f00193          	li	gp,47
    80003034:	00008337          	lui	t1,0x8
    80003038:	3823031b          	addw	t1,t1,898 # 8382 <_start-0x7fff7c7e>
    8000303c:	006410a3          	sh	t1,1(s0)
    80003040:	00145383          	lhu	t2,1(s0)
    80003044:	00730463          	beq	t1,t2,8000304c <userstart+0x640>
    80003048:	63c0106f          	j	80004684 <fail>
    8000304c:	03000193          	li	gp,48
    80003050:	87868337          	lui	t1,0x87868
    80003054:	5843031b          	addw	t1,t1,1412 # ffffffff87868584 <freelist_head+0xffffffff0785d57c>
    80003058:	006420a3          	sw	t1,1(s0)
    8000305c:	00142383          	lw	t2,1(s0)
    80003060:	00730463          	beq	t1,t2,80003068 <userstart+0x65c>
    80003064:	6200106f          	j	80004684 <fail>
    80003068:	03100193          	li	gp,49
    8000306c:	8b8a9337          	lui	t1,0x8b8a9
    80003070:	9883031b          	addw	t1,t1,-1656 # ffffffff8b8a8988 <freelist_head+0xffffffff0b89d980>
    80003074:	00642123          	sw	t1,2(s0)
    80003078:	00242383          	lw	t2,2(s0)
    8000307c:	00730463          	beq	t1,t2,80003084 <userstart+0x678>
    80003080:	6040106f          	j	80004684 <fail>
    80003084:	03200193          	li	gp,50
    80003088:	8f8e9337          	lui	t1,0x8f8e9
    8000308c:	d8c3031b          	addw	t1,t1,-628 # ffffffff8f8e8d8c <freelist_head+0xffffffff0f8ddd84>
    80003090:	006421a3          	sw	t1,3(s0)
    80003094:	00342383          	lw	t2,3(s0)
    80003098:	00730463          	beq	t1,t2,800030a0 <userstart+0x694>
    8000309c:	5e80106f          	j	80004684 <fail>
    800030a0:	03300193          	li	gp,51
    800030a4:	00094337          	lui	t1,0x94
    800030a8:	9293031b          	addw	t1,t1,-1751 # 93929 <_start-0x7ff6c6d7>
    800030ac:	00c31313          	sll	t1,t1,0xc
    800030b0:	19030313          	add	t1,t1,400
    800030b4:	006420a3          	sw	t1,1(s0)
    800030b8:	00146383          	lwu	t2,1(s0)
    800030bc:	00730463          	beq	t1,t2,800030c4 <userstart+0x6b8>
    800030c0:	5c40106f          	j	80004684 <fail>
    800030c4:	03400193          	li	gp,52
    800030c8:	00098337          	lui	t1,0x98
    800030cc:	9693031b          	addw	t1,t1,-1687 # 97969 <_start-0x7ff68697>
    800030d0:	00c31313          	sll	t1,t1,0xc
    800030d4:	59430313          	add	t1,t1,1428
    800030d8:	00642123          	sw	t1,2(s0)
    800030dc:	00246383          	lwu	t2,2(s0)
    800030e0:	00730463          	beq	t1,t2,800030e8 <userstart+0x6dc>
    800030e4:	5a00106f          	j	80004684 <fail>
    800030e8:	03500193          	li	gp,53
    800030ec:	0004e337          	lui	t1,0x4e
    800030f0:	cd53031b          	addw	t1,t1,-811 # 4dcd5 <_start-0x7ffb232b>
    800030f4:	00d31313          	sll	t1,t1,0xd
    800030f8:	99830313          	add	t1,t1,-1640
    800030fc:	006421a3          	sw	t1,3(s0)
    80003100:	00346383          	lwu	t2,3(s0)
    80003104:	00730463          	beq	t1,t2,8000310c <userstart+0x700>
    80003108:	57c0106f          	j	80004684 <fail>
    8000310c:	03600193          	li	gp,54
    80003110:	ffd1d337          	lui	t1,0xffd1d
    80003114:	1513031b          	addw	t1,t1,337 # ffffffffffd1d151 <freelist_head+0xffffffff7fd12149>
    80003118:	00c31313          	sll	t1,t1,0xc
    8000311c:	d0530313          	add	t1,t1,-763
    80003120:	01031313          	sll	t1,t1,0x10
    80003124:	cf530313          	add	t1,t1,-779
    80003128:	00d31313          	sll	t1,t1,0xd
    8000312c:	d9c30313          	add	t1,t1,-612
    80003130:	006430a3          	sd	t1,1(s0)
    80003134:	00143383          	ld	t2,1(s0)
    80003138:	00730463          	beq	t1,t2,80003140 <userstart+0x734>
    8000313c:	5480106f          	j	80004684 <fail>
    80003140:	03700193          	li	gp,55
    80003144:	ff575337          	lui	t1,0xff575
    80003148:	5533031b          	addw	t1,t1,1363 # ffffffffff575553 <freelist_head+0xffffffff7f56a54b>
    8000314c:	00c31313          	sll	t1,t1,0xc
    80003150:	51530313          	add	t1,t1,1301
    80003154:	00e31313          	sll	t1,t1,0xe
    80003158:	d3530313          	add	t1,t1,-715
    8000315c:	00d31313          	sll	t1,t1,0xd
    80003160:	5a430313          	add	t1,t1,1444
    80003164:	00643123          	sd	t1,2(s0)
    80003168:	00243383          	ld	t2,2(s0)
    8000316c:	00730463          	beq	t1,t2,80003174 <userstart+0x768>
    80003170:	5140106f          	j	80004684 <fail>
    80003174:	03800193          	li	gp,56
    80003178:	ffd9e337          	lui	t1,0xffd9e
    8000317c:	9593031b          	addw	t1,t1,-1703 # ffffffffffd9d959 <freelist_head+0xffffffff7fd92951>
    80003180:	00d31313          	sll	t1,t1,0xd
    80003184:	b0b30313          	add	t1,t1,-1269
    80003188:	01031313          	sll	t1,t1,0x10
    8000318c:	aeb30313          	add	t1,t1,-1301
    80003190:	00c31313          	sll	t1,t1,0xc
    80003194:	dac30313          	add	t1,t1,-596
    80003198:	006431a3          	sd	t1,3(s0)
    8000319c:	00343383          	ld	t2,3(s0)
    800031a0:	00730463          	beq	t1,t2,800031a8 <userstart+0x79c>
    800031a4:	4e00106f          	j	80004684 <fail>
    800031a8:	03900193          	li	gp,57
    800031ac:	ff777337          	lui	t1,0xff777
    800031b0:	5733031b          	addw	t1,t1,1395 # ffffffffff777573 <freelist_head+0xffffffff7f76c56b>
    800031b4:	00c31313          	sll	t1,t1,0xc
    800031b8:	71730313          	add	t1,t1,1815
    800031bc:	00f31313          	sll	t1,t1,0xf
    800031c0:	b6b30313          	add	t1,t1,-1173
    800031c4:	00c31313          	sll	t1,t1,0xc
    800031c8:	5b430313          	add	t1,t1,1460
    800031cc:	00643223          	sd	t1,4(s0)
    800031d0:	00443383          	ld	t2,4(s0)
    800031d4:	00730463          	beq	t1,t2,800031dc <userstart+0x7d0>
    800031d8:	4ac0106f          	j	80004684 <fail>
    800031dc:	03a00193          	li	gp,58
    800031e0:	ffff1337          	lui	t1,0xffff1
    800031e4:	f0b3031b          	addw	t1,t1,-245 # ffffffffffff0f0b <freelist_head+0xffffffff7ffe5f03>
    800031e8:	01031313          	sll	t1,t1,0x10
    800031ec:	70330313          	add	t1,t1,1795
    800031f0:	01031313          	sll	t1,t1,0x10
    800031f4:	efb30313          	add	t1,t1,-261
    800031f8:	00e31313          	sll	t1,t1,0xe
    800031fc:	dbc30313          	add	t1,t1,-580
    80003200:	006432a3          	sd	t1,5(s0)
    80003204:	00543383          	ld	t2,5(s0)
    80003208:	00730463          	beq	t1,t2,80003210 <userstart+0x804>
    8000320c:	4780106f          	j	80004684 <fail>
    80003210:	03b00193          	li	gp,59
    80003214:	ffe5e337          	lui	t1,0xffe5e
    80003218:	5653031b          	addw	t1,t1,1381 # ffffffffffe5e565 <freelist_head+0xffffffff7fe5355d>
    8000321c:	00e31313          	sll	t1,t1,0xe
    80003220:	91930313          	add	t1,t1,-1767
    80003224:	00d31313          	sll	t1,t1,0xd
    80003228:	f1b30313          	add	t1,t1,-229
    8000322c:	00e31313          	sll	t1,t1,0xe
    80003230:	5c430313          	add	t1,t1,1476
    80003234:	00643323          	sd	t1,6(s0)
    80003238:	00643383          	ld	t2,6(s0)
    8000323c:	00730463          	beq	t1,t2,80003244 <userstart+0x838>
    80003240:	4440106f          	j	80004684 <fail>
    80003244:	03c00193          	li	gp,60
    80003248:	ffe9f337          	lui	t1,0xffe9f
    8000324c:	9693031b          	addw	t1,t1,-1687 # ffffffffffe9e969 <freelist_head+0xffffffff7fe93961>
    80003250:	00d31313          	sll	t1,t1,0xd
    80003254:	d0d30313          	add	t1,t1,-755
    80003258:	01031313          	sll	t1,t1,0x10
    8000325c:	ced30313          	add	t1,t1,-787
    80003260:	00c31313          	sll	t1,t1,0xc
    80003264:	dcc30313          	add	t1,t1,-564
    80003268:	006433a3          	sd	t1,7(s0)
    8000326c:	00743383          	ld	t2,7(s0)
    80003270:	00730463          	beq	t1,t2,80003278 <userstart+0x86c>
    80003274:	4100106f          	j	80004684 <fail>
    80003278:	03d00193          	li	gp,61
    8000327c:	ffffd337          	lui	t1,0xffffd
    80003280:	5d43031b          	addw	t1,t1,1492 # ffffffffffffd5d4 <freelist_head+0xffffffff7fff25cc>
    80003284:	00641fa3          	sh	t1,31(s0)
    80003288:	01f41383          	lh	t2,31(s0)
    8000328c:	00730463          	beq	t1,t2,80003294 <userstart+0x888>
    80003290:	3f40106f          	j	80004684 <fail>
    80003294:	03e00193          	li	gp,62
    80003298:	0000d337          	lui	t1,0xd
    8000329c:	7d63031b          	addw	t1,t1,2006 # d7d6 <_start-0x7fff282a>
    800032a0:	00641fa3          	sh	t1,31(s0)
    800032a4:	01f45383          	lhu	t2,31(s0)
    800032a8:	00730463          	beq	t1,t2,800032b0 <userstart+0x8a4>
    800032ac:	3d80106f          	j	80004684 <fail>
    800032b0:	03f00193          	li	gp,63
    800032b4:	dbdae337          	lui	t1,0xdbdae
    800032b8:	9d83031b          	addw	t1,t1,-1576 # ffffffffdbdad9d8 <freelist_head+0xffffffff5bda29d0>
    800032bc:	00642ea3          	sw	t1,29(s0)
    800032c0:	01d42383          	lw	t2,29(s0)
    800032c4:	00730463          	beq	t1,t2,800032cc <userstart+0x8c0>
    800032c8:	3bc0106f          	j	80004684 <fail>
    800032cc:	04000193          	li	gp,64
    800032d0:	dfdee337          	lui	t1,0xdfdee
    800032d4:	ddc3031b          	addw	t1,t1,-548 # ffffffffdfdedddc <freelist_head+0xffffffff5fde2dd4>
    800032d8:	00642f23          	sw	t1,30(s0)
    800032dc:	01e42383          	lw	t2,30(s0)
    800032e0:	00730463          	beq	t1,t2,800032e8 <userstart+0x8dc>
    800032e4:	3a00106f          	j	80004684 <fail>
    800032e8:	04100193          	li	gp,65
    800032ec:	e3e2e337          	lui	t1,0xe3e2e
    800032f0:	1e03031b          	addw	t1,t1,480 # ffffffffe3e2e1e0 <freelist_head+0xffffffff63e231d8>
    800032f4:	00642fa3          	sw	t1,31(s0)
    800032f8:	01f42383          	lw	t2,31(s0)
    800032fc:	00730463          	beq	t1,t2,80003304 <userstart+0x8f8>
    80003300:	3840106f          	j	80004684 <fail>
    80003304:	04200193          	li	gp,66
    80003308:	00074337          	lui	t1,0x74
    8000330c:	f373031b          	addw	t1,t1,-201 # 73f37 <_start-0x7ff8c0c9>
    80003310:	00d31313          	sll	t1,t1,0xd
    80003314:	5e430313          	add	t1,t1,1508
    80003318:	00642ea3          	sw	t1,29(s0)
    8000331c:	01d46383          	lwu	t2,29(s0)
    80003320:	00730463          	beq	t1,t2,80003328 <userstart+0x91c>
    80003324:	3600106f          	j	80004684 <fail>
    80003328:	04300193          	li	gp,67
    8000332c:	000ec337          	lui	t1,0xec
    80003330:	eaf3031b          	addw	t1,t1,-337 # ebeaf <_start-0x7ff14151>
    80003334:	00c31313          	sll	t1,t1,0xc
    80003338:	9e830313          	add	t1,t1,-1560
    8000333c:	00642f23          	sw	t1,30(s0)
    80003340:	01e46383          	lwu	t2,30(s0)
    80003344:	00730463          	beq	t1,t2,8000334c <userstart+0x940>
    80003348:	33c0106f          	j	80004684 <fail>
    8000334c:	04400193          	li	gp,68
    80003350:	000f0337          	lui	t1,0xf0
    80003354:	eef3031b          	addw	t1,t1,-273 # efeef <_start-0x7ff10111>
    80003358:	00c31313          	sll	t1,t1,0xc
    8000335c:	dec30313          	add	t1,t1,-532
    80003360:	00642fa3          	sw	t1,31(s0)
    80003364:	01f46383          	lwu	t2,31(s0)
    80003368:	00730463          	beq	t1,t2,80003370 <userstart+0x964>
    8000336c:	3180106f          	j	80004684 <fail>
    80003370:	04500193          	li	gp,69
    80003374:	fffc0337          	lui	t1,0xfffc0
    80003378:	b7b3031b          	addw	t1,t1,-1157 # fffffffffffbfb7b <freelist_head+0xffffffff7ffb4b73>
    8000337c:	00f31313          	sll	t1,t1,0xf
    80003380:	d3d30313          	add	t1,t1,-707
    80003384:	00e31313          	sll	t1,t1,0xe
    80003388:	f2f30313          	add	t1,t1,-209
    8000338c:	00c31313          	sll	t1,t1,0xc
    80003390:	1f030313          	add	t1,t1,496
    80003394:	00643ca3          	sd	t1,25(s0)
    80003398:	01943383          	ld	t2,25(s0)
    8000339c:	00730463          	beq	t1,t2,800033a4 <userstart+0x998>
    800033a0:	2e40106f          	j	80004684 <fail>
    800033a4:	04600193          	li	gp,70
    800033a8:	ffff0337          	lui	t1,0xffff0
    800033ac:	dfd3031b          	addw	t1,t1,-515 # fffffffffffefdfd <freelist_head+0xffffffff7ffe4df5>
    800033b0:	01031313          	sll	t1,t1,0x10
    800033b4:	bfb30313          	add	t1,t1,-1029
    800033b8:	01031313          	sll	t1,t1,0x10
    800033bc:	9f830313          	add	t1,t1,-1544
    800033c0:	00643d23          	sd	t1,26(s0)
    800033c4:	01a43383          	ld	t2,26(s0)
    800033c8:	00730463          	beq	t1,t2,800033d0 <userstart+0x9c4>
    800033cc:	2b80106f          	j	80004684 <fail>
    800033d0:	04700193          	li	gp,71
    800033d4:	01c18337          	lui	t1,0x1c18
    800033d8:	1413031b          	addw	t1,t1,321 # 1c18141 <_start-0x7e3e7ebf>
    800033dc:	01131313          	sll	t1,t1,0x11
    800033e0:	18130313          	add	t1,t1,385
    800033e4:	01131313          	sll	t1,t1,0x11
    800033e8:	10030313          	add	t1,t1,256
    800033ec:	00643da3          	sd	t1,27(s0)
    800033f0:	01b43383          	ld	t2,27(s0)
    800033f4:	00730463          	beq	t1,t2,800033fc <userstart+0x9f0>
    800033f8:	28c0106f          	j	80004684 <fail>
    800033fc:	04800193          	li	gp,72
    80003400:	00f0e337          	lui	t1,0xf0e
    80003404:	0d13031b          	addw	t1,t1,209 # f0e0d1 <_start-0x7f0f1f2f>
    80003408:	00c31313          	sll	t1,t1,0xc
    8000340c:	c0b30313          	add	t1,t1,-1013
    80003410:	00c31313          	sll	t1,t1,0xc
    80003414:	0a130313          	add	t1,t1,161
    80003418:	00c31313          	sll	t1,t1,0xc
    8000341c:	90830313          	add	t1,t1,-1784
    80003420:	00643e23          	sd	t1,28(s0)
    80003424:	01c43383          	ld	t2,28(s0)
    80003428:	00730463          	beq	t1,t2,80003430 <userstart+0xa24>
    8000342c:	2580106f          	j	80004684 <fail>
    80003430:	04900193          	li	gp,73
    80003434:	01716337          	lui	t1,0x1716
    80003438:	1513031b          	addw	t1,t1,337 # 1716151 <_start-0x7e8e9eaf>
    8000343c:	00c31313          	sll	t1,t1,0xc
    80003440:	41330313          	add	t1,t1,1043
    80003444:	00c31313          	sll	t1,t1,0xc
    80003448:	12130313          	add	t1,t1,289
    8000344c:	00c31313          	sll	t1,t1,0xc
    80003450:	11030313          	add	t1,t1,272
    80003454:	00643ea3          	sd	t1,29(s0)
    80003458:	01d43383          	ld	t2,29(s0)
    8000345c:	00730463          	beq	t1,t2,80003464 <userstart+0xa58>
    80003460:	2240106f          	j	80004684 <fail>
    80003464:	04a00193          	li	gp,74
    80003468:	001f2337          	lui	t1,0x1f2
    8000346c:	e1d3031b          	addw	t1,t1,-483 # 1f1e1d <_start-0x7fe0e1e3>
    80003470:	00e31313          	sll	t1,t1,0xe
    80003474:	70730313          	add	t1,t1,1799
    80003478:	00d31313          	sll	t1,t1,0xd
    8000347c:	8d130313          	add	t1,t1,-1839
    80003480:	00d31313          	sll	t1,t1,0xd
    80003484:	91830313          	add	t1,t1,-1768
    80003488:	00643f23          	sd	t1,30(s0)
    8000348c:	01e43383          	ld	t2,30(s0)
    80003490:	00730463          	beq	t1,t2,80003498 <userstart+0xa8c>
    80003494:	1f00106f          	j	80004684 <fail>
    80003498:	04b00193          	li	gp,75
    8000349c:	009ca337          	lui	t1,0x9ca
    800034a0:	8953031b          	addw	t1,t1,-1899 # 9c9895 <_start-0x7f63676b>
    800034a4:	00c31313          	sll	t1,t1,0xc
    800034a8:	90930313          	add	t1,t1,-1783
    800034ac:	00d31313          	sll	t1,t1,0xd
    800034b0:	91130313          	add	t1,t1,-1775
    800034b4:	00d31313          	sll	t1,t1,0xd
    800034b8:	12030313          	add	t1,t1,288
    800034bc:	00643fa3          	sd	t1,31(s0)
    800034c0:	01f43383          	ld	t2,31(s0)
    800034c4:	00730463          	beq	t1,t2,800034cc <userstart+0xac0>
    800034c8:	1bc0106f          	j	80004684 <fail>
    800034cc:	04c00193          	li	gp,76
    800034d0:	00003337          	lui	t1,0x3
    800034d4:	5343031b          	addw	t1,t1,1332 # 3534 <_start-0x7fffcacc>
    800034d8:	02641fa3          	sh	t1,63(s0)
    800034dc:	03f41383          	lh	t2,63(s0)
    800034e0:	00730463          	beq	t1,t2,800034e8 <userstart+0xadc>
    800034e4:	1a00106f          	j	80004684 <fail>
    800034e8:	04d00193          	li	gp,77
    800034ec:	00003337          	lui	t1,0x3
    800034f0:	7363031b          	addw	t1,t1,1846 # 3736 <_start-0x7fffc8ca>
    800034f4:	02641fa3          	sh	t1,63(s0)
    800034f8:	03f45383          	lhu	t2,63(s0)
    800034fc:	00730463          	beq	t1,t2,80003504 <userstart+0xaf8>
    80003500:	1840106f          	j	80004684 <fail>
    80003504:	04e00193          	li	gp,78
    80003508:	3b3a4337          	lui	t1,0x3b3a4
    8000350c:	9383031b          	addw	t1,t1,-1736 # 3b3a3938 <_start-0x44c5c6c8>
    80003510:	02642ea3          	sw	t1,61(s0)
    80003514:	03d42383          	lw	t2,61(s0)
    80003518:	00730463          	beq	t1,t2,80003520 <userstart+0xb14>
    8000351c:	1680106f          	j	80004684 <fail>
    80003520:	04f00193          	li	gp,79
    80003524:	3f3e4337          	lui	t1,0x3f3e4
    80003528:	d3c3031b          	addw	t1,t1,-708 # 3f3e3d3c <_start-0x40c1c2c4>
    8000352c:	02642f23          	sw	t1,62(s0)
    80003530:	03e42383          	lw	t2,62(s0)
    80003534:	00730463          	beq	t1,t2,8000353c <userstart+0xb30>
    80003538:	14c0106f          	j	80004684 <fail>
    8000353c:	05000193          	li	gp,80
    80003540:	43424337          	lui	t1,0x43424
    80003544:	1403031b          	addw	t1,t1,320 # 43424140 <_start-0x3cbdbec0>
    80003548:	02642fa3          	sw	t1,63(s0)
    8000354c:	03f42383          	lw	t2,63(s0)
    80003550:	00730463          	beq	t1,t2,80003558 <userstart+0xb4c>
    80003554:	1300106f          	j	80004684 <fail>
    80003558:	05100193          	li	gp,81
    8000355c:	47464337          	lui	t1,0x47464
    80003560:	5443031b          	addw	t1,t1,1348 # 47464544 <_start-0x38b9babc>
    80003564:	02642ea3          	sw	t1,61(s0)
    80003568:	03d46383          	lwu	t2,61(s0)
    8000356c:	00730463          	beq	t1,t2,80003574 <userstart+0xb68>
    80003570:	1140106f          	j	80004684 <fail>
    80003574:	05200193          	li	gp,82
    80003578:	4b4a5337          	lui	t1,0x4b4a5
    8000357c:	9483031b          	addw	t1,t1,-1720 # 4b4a4948 <_start-0x34b5b6b8>
    80003580:	02642f23          	sw	t1,62(s0)
    80003584:	03e46383          	lwu	t2,62(s0)
    80003588:	00730463          	beq	t1,t2,80003590 <userstart+0xb84>
    8000358c:	0f80106f          	j	80004684 <fail>
    80003590:	05300193          	li	gp,83
    80003594:	4f4e5337          	lui	t1,0x4f4e5
    80003598:	d4c3031b          	addw	t1,t1,-692 # 4f4e4d4c <_start-0x30b1b2b4>
    8000359c:	02642fa3          	sw	t1,63(s0)
    800035a0:	03f46383          	lwu	t2,63(s0)
    800035a4:	00730463          	beq	t1,t2,800035ac <userstart+0xba0>
    800035a8:	0dc0106f          	j	80004684 <fail>
    800035ac:	05400193          	li	gp,84
    800035b0:	05756337          	lui	t1,0x5756
    800035b4:	5553031b          	addw	t1,t1,1365 # 5756555 <_start-0x7a8a9aab>
    800035b8:	00c31313          	sll	t1,t1,0xc
    800035bc:	45330313          	add	t1,t1,1107
    800035c0:	00c31313          	sll	t1,t1,0xc
    800035c4:	52530313          	add	t1,t1,1317
    800035c8:	00c31313          	sll	t1,t1,0xc
    800035cc:	15030313          	add	t1,t1,336
    800035d0:	02643ca3          	sd	t1,57(s0)
    800035d4:	03943383          	ld	t2,57(s0)
    800035d8:	00730463          	beq	t1,t2,800035e0 <userstart+0xbd4>
    800035dc:	0a80106f          	j	80004684 <fail>
    800035e0:	05500193          	li	gp,85
    800035e4:	017d8337          	lui	t1,0x17d8
    800035e8:	9753031b          	addw	t1,t1,-1675 # 17d7975 <_start-0x7e82868b>
    800035ec:	00c31313          	sll	t1,t1,0xc
    800035f0:	71730313          	add	t1,t1,1815
    800035f4:	00d31313          	sll	t1,t1,0xd
    800035f8:	ad330313          	add	t1,t1,-1325
    800035fc:	00d31313          	sll	t1,t1,0xd
    80003600:	95830313          	add	t1,t1,-1704
    80003604:	02643d23          	sd	t1,58(s0)
    80003608:	03a43383          	ld	t2,58(s0)
    8000360c:	00730463          	beq	t1,t2,80003614 <userstart+0xc08>
    80003610:	0740106f          	j	80004684 <fail>
    80003614:	05600193          	li	gp,86
    80003618:	00ced337          	lui	t1,0xced
    8000361c:	ccb3031b          	addw	t1,t1,-821 # cecccb <_start-0x7f313335>
    80003620:	00d31313          	sll	t1,t1,0xd
    80003624:	91930313          	add	t1,t1,-1767
    80003628:	00d31313          	sll	t1,t1,0xd
    8000362c:	b1330313          	add	t1,t1,-1261
    80003630:	00d31313          	sll	t1,t1,0xd
    80003634:	16030313          	add	t1,t1,352
    80003638:	02643da3          	sd	t1,59(s0)
    8000363c:	03b43383          	ld	t2,59(s0)
    80003640:	00730463          	beq	t1,t2,80003648 <userstart+0xc3c>
    80003644:	0400106f          	j	80004684 <fail>
    80003648:	05700193          	li	gp,87
    8000364c:	06f6e337          	lui	t1,0x6f6e
    80003650:	6d73031b          	addw	t1,t1,1751 # 6f6e6d7 <_start-0x79091929>
    80003654:	00c31313          	sll	t1,t1,0xc
    80003658:	c6b30313          	add	t1,t1,-917
    8000365c:	00c31313          	sll	t1,t1,0xc
    80003660:	6a730313          	add	t1,t1,1703
    80003664:	00c31313          	sll	t1,t1,0xc
    80003668:	96830313          	add	t1,t1,-1688
    8000366c:	02643e23          	sd	t1,60(s0)
    80003670:	03c43383          	ld	t2,60(s0)
    80003674:	00730463          	beq	t1,t2,8000367c <userstart+0xc70>
    80003678:	00c0106f          	j	80004684 <fail>
    8000367c:	05800193          	li	gp,88
    80003680:	07776337          	lui	t1,0x7776
    80003684:	7573031b          	addw	t1,t1,1879 # 7776757 <_start-0x788898a9>
    80003688:	00c31313          	sll	t1,t1,0xc
    8000368c:	47330313          	add	t1,t1,1139
    80003690:	00c31313          	sll	t1,t1,0xc
    80003694:	72730313          	add	t1,t1,1831
    80003698:	00c31313          	sll	t1,t1,0xc
    8000369c:	17030313          	add	t1,t1,368
    800036a0:	02643ea3          	sd	t1,61(s0)
    800036a4:	03d43383          	ld	t2,61(s0)
    800036a8:	7c731ee3          	bne	t1,t2,80004684 <fail>
    800036ac:	05900193          	li	gp,89
    800036b0:	00ff0337          	lui	t1,0xff0
    800036b4:	cfb3031b          	addw	t1,t1,-773 # fefcfb <_start-0x7f010305>
    800036b8:	00c31313          	sll	t1,t1,0xc
    800036bc:	f8f30313          	add	t1,t1,-113
    800036c0:	00c31313          	sll	t1,t1,0xc
    800036c4:	6f530313          	add	t1,t1,1781
    800036c8:	00f31313          	sll	t1,t1,0xf
    800036cc:	97830313          	add	t1,t1,-1672
    800036d0:	02643f23          	sd	t1,62(s0)
    800036d4:	03e43383          	ld	t2,62(s0)
    800036d8:	7a7316e3          	bne	t1,t2,80004684 <fail>
    800036dc:	05a00193          	li	gp,90
    800036e0:	fff0f337          	lui	t1,0xfff0f
    800036e4:	0d13031b          	addw	t1,t1,209 # fffffffffff0f0d1 <freelist_head+0xffffffff7ff040c9>
    800036e8:	00c31313          	sll	t1,t1,0xc
    800036ec:	b0930313          	add	t1,t1,-1271
    800036f0:	01031313          	sll	t1,t1,0x10
    800036f4:	70530313          	add	t1,t1,1797
    800036f8:	00f31313          	sll	t1,t1,0xf
    800036fc:	18030313          	add	t1,t1,384
    80003700:	02643fa3          	sd	t1,63(s0)
    80003704:	03f43383          	ld	t2,63(s0)
    80003708:	76731ee3          	bne	t1,t2,80004684 <fail>
    8000370c:	05b00193          	li	gp,91
    80003710:	0000a337          	lui	t1,0xa
    80003714:	9983031b          	addw	t1,t1,-1640 # 9998 <_start-0x7fff6668>
    80003718:	f9800393          	li	t2,-104
    8000371c:	006410a3          	sh	t1,1(s0)
    80003720:	00140e03          	lb	t3,1(s0)
    80003724:	77c390e3          	bne	t2,t3,80004684 <fail>
    80003728:	05c00193          	li	gp,92
    8000372c:	0000a337          	lui	t1,0xa
    80003730:	b9a3031b          	addw	t1,t1,-1126 # 9b9a <_start-0x7fff6466>
    80003734:	f9b00393          	li	t2,-101
    80003738:	006410a3          	sh	t1,1(s0)
    8000373c:	00240e03          	lb	t3,2(s0)
    80003740:	75c392e3          	bne	t2,t3,80004684 <fail>
    80003744:	05d00193          	li	gp,93
    80003748:	0000a337          	lui	t1,0xa
    8000374c:	d9c3031b          	addw	t1,t1,-612 # 9d9c <_start-0x7fff6264>
    80003750:	09c00393          	li	t2,156
    80003754:	006410a3          	sh	t1,1(s0)
    80003758:	00144e03          	lbu	t3,1(s0)
    8000375c:	73c394e3          	bne	t2,t3,80004684 <fail>
    80003760:	05e00193          	li	gp,94
    80003764:	0000a337          	lui	t1,0xa
    80003768:	f9e3031b          	addw	t1,t1,-98 # 9f9e <_start-0x7fff6062>
    8000376c:	09f00393          	li	t2,159
    80003770:	006410a3          	sh	t1,1(s0)
    80003774:	00244e03          	lbu	t3,2(s0)
    80003778:	71c396e3          	bne	t2,t3,80004684 <fail>
    8000377c:	05f00193          	li	gp,95
    80003780:	00052337          	lui	t1,0x52
    80003784:	d153031b          	addw	t1,t1,-747 # 51d15 <_start-0x7ffae2eb>
    80003788:	00d31313          	sll	t1,t1,0xd
    8000378c:	1a030313          	add	t1,t1,416
    80003790:	fa000393          	li	t2,-96
    80003794:	006420a3          	sw	t1,1(s0)
    80003798:	00140e03          	lb	t3,1(s0)
    8000379c:	6fc394e3          	bne	t2,t3,80004684 <fail>
    800037a0:	06000193          	li	gp,96
    800037a4:	00054337          	lui	t1,0x54
    800037a8:	d353031b          	addw	t1,t1,-715 # 53d35 <_start-0x7ffac2cb>
    800037ac:	00d31313          	sll	t1,t1,0xd
    800037b0:	5a430313          	add	t1,t1,1444
    800037b4:	0a500393          	li	t2,165
    800037b8:	00642123          	sw	t1,2(s0)
    800037bc:	00344e03          	lbu	t3,3(s0)
    800037c0:	6dc392e3          	bne	t2,t3,80004684 <fail>
    800037c4:	06100193          	li	gp,97
    800037c8:	000ac337          	lui	t1,0xac
    800037cc:	aab3031b          	addw	t1,t1,-1365 # abaab <_start-0x7ff54555>
    800037d0:	00c31313          	sll	t1,t1,0xc
    800037d4:	9a830313          	add	t1,t1,-1624
    800037d8:	ffffb3b7          	lui	t2,0xffffb
    800037dc:	aa93839b          	addw	t2,t2,-1367 # ffffffffffffaaa9 <freelist_head+0xffffffff7ffefaa1>
    800037e0:	006421a3          	sw	t1,3(s0)
    800037e4:	00441e03          	lh	t3,4(s0)
    800037e8:	69c39ee3          	bne	t2,t3,80004684 <fail>
    800037ec:	06200193          	li	gp,98
    800037f0:	000b0337          	lui	t1,0xb0
    800037f4:	aeb3031b          	addw	t1,t1,-1301 # afaeb <_start-0x7ff50515>
    800037f8:	00c31313          	sll	t1,t1,0xc
    800037fc:	dac30313          	add	t1,t1,-596
    80003800:	0000b3b7          	lui	t2,0xb
    80003804:	fae3839b          	addw	t2,t2,-82 # afae <_start-0x7fff5052>
    80003808:	006421a3          	sw	t1,3(s0)
    8000380c:	00545e03          	lhu	t3,5(s0)
    80003810:	67c39ae3          	bne	t2,t3,80004684 <fail>
    80003814:	06300193          	li	gp,99
    80003818:	fedee337          	lui	t1,0xfedee
    8000381c:	ad73031b          	addw	t1,t1,-1321 # fffffffffededad7 <freelist_head+0xffffffff7ede2acf>
    80003820:	00c31313          	sll	t1,t1,0xc
    80003824:	d2d30313          	add	t1,t1,-723
    80003828:	00e31313          	sll	t1,t1,0xe
    8000382c:	b2b30313          	add	t1,t1,-1237
    80003830:	00c31313          	sll	t1,t1,0xc
    80003834:	1b030313          	add	t1,t1,432
    80003838:	fb600393          	li	t2,-74
    8000383c:	006430a3          	sd	t1,1(s0)
    80003840:	00740e03          	lb	t3,7(s0)
    80003844:	65c390e3          	bne	t2,t3,80004684 <fail>
    80003848:	06400193          	li	gp,100
    8000384c:	feff0337          	lui	t1,0xfeff0
    80003850:	af73031b          	addw	t1,t1,-1289 # fffffffffefefaf7 <freelist_head+0xffffffff7efe4aef>
    80003854:	00c31313          	sll	t1,t1,0xc
    80003858:	f2f30313          	add	t1,t1,-209
    8000385c:	00c31313          	sll	t1,t1,0xc
    80003860:	eeb30313          	add	t1,t1,-277
    80003864:	00e31313          	sll	t1,t1,0xe
    80003868:	9b830313          	add	t1,t1,-1608
    8000386c:	0b900393          	li	t2,185
    80003870:	00643123          	sd	t1,2(s0)
    80003874:	00344e03          	lbu	t3,3(s0)
    80003878:	61c396e3          	bne	t2,t3,80004684 <fail>
    8000387c:	06500193          	li	gp,101
    80003880:	ff1f2337          	lui	t1,0xff1f2
    80003884:	b173031b          	addw	t1,t1,-1257 # ffffffffff1f1b17 <freelist_head+0xffffffff7f1e6b0f>
    80003888:	00c31313          	sll	t1,t1,0xc
    8000388c:	13130313          	add	t1,t1,305
    80003890:	00c31313          	sll	t1,t1,0xc
    80003894:	f0b30313          	add	t1,t1,-245
    80003898:	00e31313          	sll	t1,t1,0xe
    8000389c:	1c030313          	add	t1,t1,448
    800038a0:	ffffc3b7          	lui	t2,0xffffc
    800038a4:	7c63839b          	addw	t2,t2,1990 # ffffffffffffc7c6 <freelist_head+0xffffffff7fff17be>
    800038a8:	006431a3          	sd	t1,3(s0)
    800038ac:	00941e03          	lh	t3,9(s0)
    800038b0:	5dc39ae3          	bne	t2,t3,80004684 <fail>
    800038b4:	06600193          	li	gp,102
    800038b8:	ff3f4337          	lui	t1,0xff3f4
    800038bc:	b373031b          	addw	t1,t1,-1225 # ffffffffff3f3b37 <freelist_head+0xffffffff7f3e8b2f>
    800038c0:	00c31313          	sll	t1,t1,0xc
    800038c4:	33330313          	add	t1,t1,819
    800038c8:	00e31313          	sll	t1,t1,0xe
    800038cc:	cad30313          	add	t1,t1,-851
    800038d0:	00c31313          	sll	t1,t1,0xc
    800038d4:	9c830313          	add	t1,t1,-1592
    800038d8:	0000d3b7          	lui	t2,0xd
    800038dc:	ac93839b          	addw	t2,t2,-1335 # cac9 <_start-0x7fff3537>
    800038e0:	00643223          	sd	t1,4(s0)
    800038e4:	00545e03          	lhu	t3,5(s0)
    800038e8:	59c39ee3          	bne	t2,t3,80004684 <fail>
    800038ec:	06700193          	li	gp,103
    800038f0:	ff5f6337          	lui	t1,0xff5f6
    800038f4:	b573031b          	addw	t1,t1,-1193 # ffffffffff5f5b57 <freelist_head+0xffffffff7f5eab4f>
    800038f8:	00c31313          	sll	t1,t1,0xc
    800038fc:	53530313          	add	t1,t1,1333
    80003900:	00e31313          	sll	t1,t1,0xe
    80003904:	d2d30313          	add	t1,t1,-723
    80003908:	00c31313          	sll	t1,t1,0xc
    8000390c:	1d030313          	add	t1,t1,464
    80003910:	d7d6d3b7          	lui	t2,0xd7d6d
    80003914:	5d43839b          	addw	t2,t2,1492 # ffffffffd7d6d5d4 <freelist_head+0xffffffff57d625cc>
    80003918:	006432a3          	sd	t1,5(s0)
    8000391c:	00942e03          	lw	t3,9(s0)
    80003920:	57c392e3          	bne	t2,t3,80004684 <fail>
    80003924:	06800193          	li	gp,104
    80003928:	ff7f8337          	lui	t1,0xff7f8
    8000392c:	b773031b          	addw	t1,t1,-1161 # ffffffffff7f7b77 <freelist_head+0xffffffff7f7ecb6f>
    80003930:	00c31313          	sll	t1,t1,0xc
    80003934:	73730313          	add	t1,t1,1847
    80003938:	00d31313          	sll	t1,t1,0xd
    8000393c:	ed730313          	add	t1,t1,-297
    80003940:	00d31313          	sll	t1,t1,0xd
    80003944:	9d830313          	add	t1,t1,-1576
    80003948:	dddce3b7          	lui	t2,0xdddce
    8000394c:	bda3839b          	addw	t2,t2,-1062 # ffffffffdddcdbda <freelist_head+0xffffffff5ddc2bd2>
    80003950:	00643323          	sd	t1,6(s0)
    80003954:	00842e03          	lw	t3,8(s0)
    80003958:	53c396e3          	bne	t2,t3,80004684 <fail>
    8000395c:	06900193          	li	gp,105
    80003960:	fff3f337          	lui	t1,0xfff3f
    80003964:	3733031b          	addw	t1,t1,883 # fffffffffff3f373 <freelist_head+0xffffffff7ff3436b>
    80003968:	00f31313          	sll	t1,t1,0xf
    8000396c:	93930313          	add	t1,t1,-1735
    80003970:	00d31313          	sll	t1,t1,0xd
    80003974:	f1730313          	add	t1,t1,-233
    80003978:	00d31313          	sll	t1,t1,0xd
    8000397c:	1e030313          	add	t1,t1,480
    80003980:	000723b7          	lui	t2,0x72
    80003984:	71f3839b          	addw	t2,t2,1823 # 7271f <_start-0x7ff8d8e1>
    80003988:	00d39393          	sll	t2,t2,0xd
    8000398c:	2e138393          	add	t2,t2,737
    80003990:	006433a3          	sd	t1,7(s0)
    80003994:	00846e03          	lwu	t3,8(s0)
    80003998:	4fc396e3          	bne	t2,t3,80004684 <fail>
    8000399c:	06a00193          	li	gp,106
    800039a0:	0000f337          	lui	t1,0xf
    800039a4:	9e83031b          	addw	t1,t1,-1560 # e9e8 <_start-0x7fff1618>
    800039a8:	fe800393          	li	t2,-24
    800039ac:	00641fa3          	sh	t1,31(s0)
    800039b0:	01f40e03          	lb	t3,31(s0)
    800039b4:	4dc398e3          	bne	t2,t3,80004684 <fail>
    800039b8:	06b00193          	li	gp,107
    800039bc:	0000f337          	lui	t1,0xf
    800039c0:	bea3031b          	addw	t1,t1,-1046 # ebea <_start-0x7fff1416>
    800039c4:	feb00393          	li	t2,-21
    800039c8:	00641fa3          	sh	t1,31(s0)
    800039cc:	02040e03          	lb	t3,32(s0)
    800039d0:	4bc39ae3          	bne	t2,t3,80004684 <fail>
    800039d4:	06c00193          	li	gp,108
    800039d8:	0000f337          	lui	t1,0xf
    800039dc:	dec3031b          	addw	t1,t1,-532 # edec <_start-0x7fff1214>
    800039e0:	0ec00393          	li	t2,236
    800039e4:	00641fa3          	sh	t1,31(s0)
    800039e8:	01f44e03          	lbu	t3,31(s0)
    800039ec:	49c39ce3          	bne	t2,t3,80004684 <fail>
    800039f0:	06d00193          	li	gp,109
    800039f4:	0000f337          	lui	t1,0xf
    800039f8:	fee3031b          	addw	t1,t1,-18 # efee <_start-0x7fff1012>
    800039fc:	0ef00393          	li	t2,239
    80003a00:	00641fa3          	sh	t1,31(s0)
    80003a04:	02044e03          	lbu	t3,32(s0)
    80003a08:	47c39ee3          	bne	t2,t3,80004684 <fail>
    80003a0c:	06e00193          	li	gp,110
    80003a10:	000f4337          	lui	t1,0xf4
    80003a14:	f2f3031b          	addw	t1,t1,-209 # f3f2f <_start-0x7ff0c0d1>
    80003a18:	00c31313          	sll	t1,t1,0xc
    80003a1c:	1f030313          	add	t1,t1,496
    80003a20:	ff000393          	li	t2,-16
    80003a24:	00642ea3          	sw	t1,29(s0)
    80003a28:	01d40e03          	lb	t3,29(s0)
    80003a2c:	45c39ce3          	bne	t2,t3,80004684 <fail>
    80003a30:	06f00193          	li	gp,111
    80003a34:	000f8337          	lui	t1,0xf8
    80003a38:	f6f3031b          	addw	t1,t1,-145 # f7f6f <_start-0x7ff08091>
    80003a3c:	00c31313          	sll	t1,t1,0xc
    80003a40:	5f430313          	add	t1,t1,1524
    80003a44:	0f600393          	li	t2,246
    80003a48:	00642f23          	sw	t1,30(s0)
    80003a4c:	02044e03          	lbu	t3,32(s0)
    80003a50:	43c39ae3          	bne	t2,t3,80004684 <fail>
    80003a54:	07000193          	li	gp,112
    80003a58:	00010337          	lui	t1,0x10
    80003a5c:	bfb3031b          	addw	t1,t1,-1029 # fbfb <_start-0x7fff0405>
    80003a60:	01031313          	sll	t1,t1,0x10
    80003a64:	9f830313          	add	t1,t1,-1544
    80003a68:	bfa00393          	li	t2,-1030
    80003a6c:	00642ea3          	sw	t1,29(s0)
    80003a70:	01f41e03          	lh	t3,31(s0)
    80003a74:	41c398e3          	bne	t2,t3,80004684 <fail>
    80003a78:	07100193          	li	gp,113
    80003a7c:	00010337          	lui	t1,0x10
    80003a80:	fff3031b          	addw	t1,t1,-1 # ffff <_start-0x7fff0001>
    80003a84:	01031313          	sll	t1,t1,0x10
    80003a88:	dfc30313          	add	t1,t1,-516
    80003a8c:	000103b7          	lui	t2,0x10
    80003a90:	dfc3839b          	addw	t2,t2,-516 # fdfc <_start-0x7fff0204>
    80003a94:	00642fa3          	sw	t1,31(s0)
    80003a98:	01f45e03          	lhu	t3,31(s0)
    80003a9c:	3fc394e3          	bne	t2,t3,80004684 <fail>
    80003aa0:	07200193          	li	gp,114
    80003aa4:	01c18337          	lui	t1,0x1c18
    80003aa8:	1413031b          	addw	t1,t1,321 # 1c18141 <_start-0x7e3e7ebf>
    80003aac:	01131313          	sll	t1,t1,0x11
    80003ab0:	18130313          	add	t1,t1,385
    80003ab4:	01131313          	sll	t1,t1,0x11
    80003ab8:	10030313          	add	t1,t1,256
    80003abc:	00700393          	li	t2,7
    80003ac0:	00643ca3          	sd	t1,25(s0)
    80003ac4:	02040e03          	lb	t3,32(s0)
    80003ac8:	3bc39ee3          	bne	t2,t3,80004684 <fail>
    80003acc:	07300193          	li	gp,115
    80003ad0:	00f0e337          	lui	t1,0xf0e
    80003ad4:	0d13031b          	addw	t1,t1,209 # f0e0d1 <_start-0x7f0f1f2f>
    80003ad8:	00c31313          	sll	t1,t1,0xc
    80003adc:	c0b30313          	add	t1,t1,-1013
    80003ae0:	00c31313          	sll	t1,t1,0xc
    80003ae4:	0a130313          	add	t1,t1,161
    80003ae8:	00c31313          	sll	t1,t1,0xc
    80003aec:	90830313          	add	t1,t1,-1784
    80003af0:	00f00393          	li	t2,15
    80003af4:	00643d23          	sd	t1,26(s0)
    80003af8:	02144e03          	lbu	t3,33(s0)
    80003afc:	39c394e3          	bne	t2,t3,80004684 <fail>
    80003b00:	07400193          	li	gp,116
    80003b04:	01716337          	lui	t1,0x1716
    80003b08:	1513031b          	addw	t1,t1,337 # 1716151 <_start-0x7e8e9eaf>
    80003b0c:	00c31313          	sll	t1,t1,0xc
    80003b10:	41330313          	add	t1,t1,1043
    80003b14:	00c31313          	sll	t1,t1,0xc
    80003b18:	12130313          	add	t1,t1,289
    80003b1c:	00c31313          	sll	t1,t1,0xc
    80003b20:	11030313          	add	t1,t1,272
    80003b24:	000013b7          	lui	t2,0x1
    80003b28:	5143839b          	addw	t2,t2,1300 # 1514 <_start-0x7fffeaec>
    80003b2c:	00643da3          	sd	t1,27(s0)
    80003b30:	01f41e03          	lh	t3,31(s0)
    80003b34:	35c398e3          	bne	t2,t3,80004684 <fail>
    80003b38:	07500193          	li	gp,117
    80003b3c:	001f2337          	lui	t1,0x1f2
    80003b40:	e1d3031b          	addw	t1,t1,-483 # 1f1e1d <_start-0x7fe0e1e3>
    80003b44:	00e31313          	sll	t1,t1,0xe
    80003b48:	70730313          	add	t1,t1,1799
    80003b4c:	00d31313          	sll	t1,t1,0xd
    80003b50:	8d130313          	add	t1,t1,-1839
    80003b54:	00d31313          	sll	t1,t1,0xd
    80003b58:	91830313          	add	t1,t1,-1768
    80003b5c:	000023b7          	lui	t2,0x2
    80003b60:	c1b3839b          	addw	t2,t2,-997 # 1c1b <_start-0x7fffe3e5>
    80003b64:	00643e23          	sd	t1,28(s0)
    80003b68:	01f45e03          	lhu	t3,31(s0)
    80003b6c:	31c39ce3          	bne	t2,t3,80004684 <fail>
    80003b70:	07600193          	li	gp,118
    80003b74:	009ca337          	lui	t1,0x9ca
    80003b78:	8953031b          	addw	t1,t1,-1899 # 9c9895 <_start-0x7f63676b>
    80003b7c:	00c31313          	sll	t1,t1,0xc
    80003b80:	90930313          	add	t1,t1,-1783
    80003b84:	00d31313          	sll	t1,t1,0xd
    80003b88:	91130313          	add	t1,t1,-1775
    80003b8c:	00d31313          	sll	t1,t1,0xd
    80003b90:	12030313          	add	t1,t1,288
    80003b94:	232223b7          	lui	t2,0x23222
    80003b98:	1203839b          	addw	t2,t2,288 # 23222120 <_start-0x5cdddee0>
    80003b9c:	00643ea3          	sd	t1,29(s0)
    80003ba0:	01d42e03          	lw	t3,29(s0)
    80003ba4:	2fc390e3          	bne	t2,t3,80004684 <fail>
    80003ba8:	07700193          	li	gp,119
    80003bac:	02f2e337          	lui	t1,0x2f2e
    80003bb0:	2d33031b          	addw	t1,t1,723 # 2f2e2d3 <_start-0x7d0d1d2d>
    80003bb4:	00c31313          	sll	t1,t1,0xc
    80003bb8:	c2b30313          	add	t1,t1,-981
    80003bbc:	00c31313          	sll	t1,t1,0xc
    80003bc0:	2a330313          	add	t1,t1,675
    80003bc4:	00c31313          	sll	t1,t1,0xc
    80003bc8:	92830313          	add	t1,t1,-1752
    80003bcc:	2b2a33b7          	lui	t2,0x2b2a3
    80003bd0:	9283839b          	addw	t2,t2,-1752 # 2b2a2928 <_start-0x54d5d6d8>
    80003bd4:	00643f23          	sd	t1,30(s0)
    80003bd8:	01e42e03          	lw	t3,30(s0)
    80003bdc:	2bc394e3          	bne	t2,t3,80004684 <fail>
    80003be0:	07800193          	li	gp,120
    80003be4:	03736337          	lui	t1,0x3736
    80003be8:	3533031b          	addw	t1,t1,851 # 3736353 <_start-0x7c8c9cad>
    80003bec:	00c31313          	sll	t1,t1,0xc
    80003bf0:	43330313          	add	t1,t1,1075
    80003bf4:	00c31313          	sll	t1,t1,0xc
    80003bf8:	32330313          	add	t1,t1,803
    80003bfc:	00c31313          	sll	t1,t1,0xc
    80003c00:	13030313          	add	t1,t1,304
    80003c04:	333233b7          	lui	t2,0x33323
    80003c08:	1303839b          	addw	t2,t2,304 # 33323130 <_start-0x4ccdced0>
    80003c0c:	00643fa3          	sd	t1,31(s0)
    80003c10:	01f46e03          	lwu	t3,31(s0)
    80003c14:	27c398e3          	bne	t2,t3,80004684 <fail>
    80003c18:	07900193          	li	gp,121
    80003c1c:	00005337          	lui	t1,0x5
    80003c20:	9483031b          	addw	t1,t1,-1720 # 4948 <_start-0x7fffb6b8>
    80003c24:	04800393          	li	t2,72
    80003c28:	02641fa3          	sh	t1,63(s0)
    80003c2c:	03f40e03          	lb	t3,63(s0)
    80003c30:	25c39ae3          	bne	t2,t3,80004684 <fail>
    80003c34:	07a00193          	li	gp,122
    80003c38:	00005337          	lui	t1,0x5
    80003c3c:	b4a3031b          	addw	t1,t1,-1206 # 4b4a <_start-0x7fffb4b6>
    80003c40:	04b00393          	li	t2,75
    80003c44:	02641fa3          	sh	t1,63(s0)
    80003c48:	04040e03          	lb	t3,64(s0)
    80003c4c:	23c39ce3          	bne	t2,t3,80004684 <fail>
    80003c50:	07b00193          	li	gp,123
    80003c54:	00005337          	lui	t1,0x5
    80003c58:	d4c3031b          	addw	t1,t1,-692 # 4d4c <_start-0x7fffb2b4>
    80003c5c:	04c00393          	li	t2,76
    80003c60:	02641fa3          	sh	t1,63(s0)
    80003c64:	03f44e03          	lbu	t3,63(s0)
    80003c68:	21c39ee3          	bne	t2,t3,80004684 <fail>
    80003c6c:	07c00193          	li	gp,124
    80003c70:	00005337          	lui	t1,0x5
    80003c74:	f4e3031b          	addw	t1,t1,-178 # 4f4e <_start-0x7fffb0b2>
    80003c78:	04f00393          	li	t2,79
    80003c7c:	02641fa3          	sh	t1,63(s0)
    80003c80:	04044e03          	lbu	t3,64(s0)
    80003c84:	21c390e3          	bne	t2,t3,80004684 <fail>
    80003c88:	07d00193          	li	gp,125
    80003c8c:	53525337          	lui	t1,0x53525
    80003c90:	1503031b          	addw	t1,t1,336 # 53525150 <_start-0x2cadaeb0>
    80003c94:	05000393          	li	t2,80
    80003c98:	02642ea3          	sw	t1,61(s0)
    80003c9c:	03d40e03          	lb	t3,61(s0)
    80003ca0:	1fc392e3          	bne	t2,t3,80004684 <fail>
    80003ca4:	07e00193          	li	gp,126
    80003ca8:	57565337          	lui	t1,0x57565
    80003cac:	5543031b          	addw	t1,t1,1364 # 57565554 <_start-0x28a9aaac>
    80003cb0:	05600393          	li	t2,86
    80003cb4:	02642f23          	sw	t1,62(s0)
    80003cb8:	04044e03          	lbu	t3,64(s0)
    80003cbc:	1dc394e3          	bne	t2,t3,80004684 <fail>
    80003cc0:	07f00193          	li	gp,127
    80003cc4:	5b5a6337          	lui	t1,0x5b5a6
    80003cc8:	9583031b          	addw	t1,t1,-1704 # 5b5a5958 <_start-0x24a5a6a8>
    80003ccc:	000063b7          	lui	t2,0x6
    80003cd0:	b5a3839b          	addw	t2,t2,-1190 # 5b5a <_start-0x7fffa4a6>
    80003cd4:	02642ea3          	sw	t1,61(s0)
    80003cd8:	03f41e03          	lh	t3,63(s0)
    80003cdc:	1bc394e3          	bne	t2,t3,80004684 <fail>
    80003ce0:	08000193          	li	gp,128
    80003ce4:	5f5e6337          	lui	t1,0x5f5e6
    80003ce8:	d5c3031b          	addw	t1,t1,-676 # 5f5e5d5c <_start-0x20a1a2a4>
    80003cec:	000063b7          	lui	t2,0x6
    80003cf0:	d5c3839b          	addw	t2,t2,-676 # 5d5c <_start-0x7fffa2a4>
    80003cf4:	02642fa3          	sw	t1,63(s0)
    80003cf8:	03f45e03          	lhu	t3,63(s0)
    80003cfc:	19c394e3          	bne	t2,t3,80004684 <fail>
    80003d00:	08100193          	li	gp,129
    80003d04:	00ced337          	lui	t1,0xced
    80003d08:	ccb3031b          	addw	t1,t1,-821 # cecccb <_start-0x7f313335>
    80003d0c:	00d31313          	sll	t1,t1,0xd
    80003d10:	91930313          	add	t1,t1,-1767
    80003d14:	00d31313          	sll	t1,t1,0xd
    80003d18:	b1330313          	add	t1,t1,-1261
    80003d1c:	00d31313          	sll	t1,t1,0xd
    80003d20:	16030313          	add	t1,t1,352
    80003d24:	06700393          	li	t2,103
    80003d28:	02643ca3          	sd	t1,57(s0)
    80003d2c:	04040e03          	lb	t3,64(s0)
    80003d30:	15c39ae3          	bne	t2,t3,80004684 <fail>
    80003d34:	08200193          	li	gp,130
    80003d38:	06f6e337          	lui	t1,0x6f6e
    80003d3c:	6d73031b          	addw	t1,t1,1751 # 6f6e6d7 <_start-0x79091929>
    80003d40:	00c31313          	sll	t1,t1,0xc
    80003d44:	c6b30313          	add	t1,t1,-917
    80003d48:	00c31313          	sll	t1,t1,0xc
    80003d4c:	6a730313          	add	t1,t1,1703
    80003d50:	00c31313          	sll	t1,t1,0xc
    80003d54:	96830313          	add	t1,t1,-1688
    80003d58:	06f00393          	li	t2,111
    80003d5c:	02643d23          	sd	t1,58(s0)
    80003d60:	04144e03          	lbu	t3,65(s0)
    80003d64:	13c390e3          	bne	t2,t3,80004684 <fail>
    80003d68:	08300193          	li	gp,131
    80003d6c:	07776337          	lui	t1,0x7776
    80003d70:	7573031b          	addw	t1,t1,1879 # 7776757 <_start-0x788898a9>
    80003d74:	00c31313          	sll	t1,t1,0xc
    80003d78:	47330313          	add	t1,t1,1139
    80003d7c:	00c31313          	sll	t1,t1,0xc
    80003d80:	72730313          	add	t1,t1,1831
    80003d84:	00c31313          	sll	t1,t1,0xc
    80003d88:	17030313          	add	t1,t1,368
    80003d8c:	000073b7          	lui	t2,0x7
    80003d90:	5743839b          	addw	t2,t2,1396 # 7574 <_start-0x7fff8a8c>
    80003d94:	02643da3          	sd	t1,59(s0)
    80003d98:	03f41e03          	lh	t3,63(s0)
    80003d9c:	0fc394e3          	bne	t2,t3,80004684 <fail>
    80003da0:	08400193          	li	gp,132
    80003da4:	00ff0337          	lui	t1,0xff0
    80003da8:	cfb3031b          	addw	t1,t1,-773 # fefcfb <_start-0x7f010305>
    80003dac:	00c31313          	sll	t1,t1,0xc
    80003db0:	f8f30313          	add	t1,t1,-113
    80003db4:	00c31313          	sll	t1,t1,0xc
    80003db8:	6f530313          	add	t1,t1,1781
    80003dbc:	00f31313          	sll	t1,t1,0xf
    80003dc0:	97830313          	add	t1,t1,-1672
    80003dc4:	000083b7          	lui	t2,0x8
    80003dc8:	c7b3839b          	addw	t2,t2,-901 # 7c7b <_start-0x7fff8385>
    80003dcc:	02643e23          	sd	t1,60(s0)
    80003dd0:	03f45e03          	lhu	t3,63(s0)
    80003dd4:	0bc398e3          	bne	t2,t3,80004684 <fail>
    80003dd8:	08500193          	li	gp,133
    80003ddc:	fff0f337          	lui	t1,0xfff0f
    80003de0:	0d13031b          	addw	t1,t1,209 # fffffffffff0f0d1 <freelist_head+0xffffffff7ff040c9>
    80003de4:	00c31313          	sll	t1,t1,0xc
    80003de8:	b0930313          	add	t1,t1,-1271
    80003dec:	01031313          	sll	t1,t1,0x10
    80003df0:	70530313          	add	t1,t1,1797
    80003df4:	00f31313          	sll	t1,t1,0xf
    80003df8:	18030313          	add	t1,t1,384
    80003dfc:	838283b7          	lui	t2,0x83828
    80003e00:	1803839b          	addw	t2,t2,384 # ffffffff83828180 <freelist_head+0xffffffff0381d178>
    80003e04:	02643ea3          	sd	t1,61(s0)
    80003e08:	03d42e03          	lw	t3,61(s0)
    80003e0c:	07c39ce3          	bne	t2,t3,80004684 <fail>
    80003e10:	08600193          	li	gp,134
    80003e14:	ff1f2337          	lui	t1,0xff1f2
    80003e18:	d1b3031b          	addw	t1,t1,-741 # ffffffffff1f1d1b <freelist_head+0xffffffff7f1e6d13>
    80003e1c:	00d31313          	sll	t1,t1,0xd
    80003e20:	32330313          	add	t1,t1,803
    80003e24:	00e31313          	sll	t1,t1,0xe
    80003e28:	8a930313          	add	t1,t1,-1879
    80003e2c:	00c31313          	sll	t1,t1,0xc
    80003e30:	98830313          	add	t1,t1,-1656
    80003e34:	8b8a93b7          	lui	t2,0x8b8a9
    80003e38:	9883839b          	addw	t2,t2,-1656 # ffffffff8b8a8988 <freelist_head+0xffffffff0b89d980>
    80003e3c:	02643f23          	sd	t1,62(s0)
    80003e40:	03e42e03          	lw	t3,62(s0)
    80003e44:	05c390e3          	bne	t2,t3,80004684 <fail>
    80003e48:	08700193          	li	gp,135
    80003e4c:	ff2f3337          	lui	t1,0xff2f3
    80003e50:	d2b3031b          	addw	t1,t1,-725 # ffffffffff2f2d2b <freelist_head+0xffffffff7f2e7d23>
    80003e54:	00d31313          	sll	t1,t1,0xd
    80003e58:	52530313          	add	t1,t1,1317
    80003e5c:	00e31313          	sll	t1,t1,0xe
    80003e60:	92930313          	add	t1,t1,-1751
    80003e64:	00c31313          	sll	t1,t1,0xc
    80003e68:	19030313          	add	t1,t1,400
    80003e6c:	000943b7          	lui	t2,0x94
    80003e70:	9293839b          	addw	t2,t2,-1751 # 93929 <_start-0x7ff6c6d7>
    80003e74:	00c39393          	sll	t2,t2,0xc
    80003e78:	19038393          	add	t2,t2,400
    80003e7c:	02643fa3          	sd	t1,63(s0)
    80003e80:	03f46e03          	lwu	t3,63(s0)
    80003e84:	01c390e3          	bne	t2,t3,80004684 <fail>
    80003e88:	08800193          	li	gp,136
    80003e8c:	09800313          	li	t1,152
    80003e90:	ffffc3b7          	lui	t2,0xffffc
    80003e94:	8983839b          	addw	t2,t2,-1896 # ffffffffffffb898 <freelist_head+0xffffffff7fff0890>
    80003e98:	006400a3          	sb	t1,1(s0)
    80003e9c:	00141e03          	lh	t3,1(s0)
    80003ea0:	7fc39263          	bne	t2,t3,80004684 <fail>
    80003ea4:	08900193          	li	gp,137
    80003ea8:	09900313          	li	t1,153
    80003eac:	0000a3b7          	lui	t2,0xa
    80003eb0:	9983839b          	addw	t2,t2,-1640 # 9998 <_start-0x7fff6668>
    80003eb4:	00640123          	sb	t1,2(s0)
    80003eb8:	00145e03          	lhu	t3,1(s0)
    80003ebc:	7dc39463          	bne	t2,t3,80004684 <fail>
    80003ec0:	08a00193          	li	gp,138
    80003ec4:	0000a337          	lui	t1,0xa
    80003ec8:	b9a3031b          	addw	t1,t1,-1126 # 9b9a <_start-0x7fff6466>
    80003ecc:	c8c0a3b7          	lui	t2,0xc8c0a
    80003ed0:	b9a3839b          	addw	t2,t2,-1126 # ffffffffc8c09b9a <freelist_head+0xffffffff48bfeb92>
    80003ed4:	006410a3          	sh	t1,1(s0)
    80003ed8:	00142e03          	lw	t3,1(s0)
    80003edc:	7bc39463          	bne	t2,t3,80004684 <fail>
    80003ee0:	08b00193          	li	gp,139
    80003ee4:	0000a337          	lui	t1,0xa
    80003ee8:	d9c3031b          	addw	t1,t1,-612 # 9d9c <_start-0x7fff6264>
    80003eec:	d09da3b7          	lui	t2,0xd09da
    80003ef0:	c9b3839b          	addw	t2,t2,-869 # ffffffffd09d9c9b <freelist_head+0xffffffff509cec93>
    80003ef4:	006411a3          	sh	t1,3(s0)
    80003ef8:	00242e03          	lw	t3,2(s0)
    80003efc:	79c39463          	bne	t2,t3,80004684 <fail>
    80003f00:	08c00193          	li	gp,140
    80003f04:	0000a337          	lui	t1,0xa
    80003f08:	f9e3031b          	addw	t1,t1,-98 # 9f9e <_start-0x7fff6062>
    80003f0c:	9f9ea3b7          	lui	t2,0x9f9ea
    80003f10:	d9c3839b          	addw	t2,t2,-612 # ffffffff9f9e9d9c <freelist_head+0xffffffff1f9ded94>
    80003f14:	006412a3          	sh	t1,5(s0)
    80003f18:	00342e03          	lw	t3,3(s0)
    80003f1c:	77c39463          	bne	t2,t3,80004684 <fail>
    80003f20:	08d00193          	li	gp,141
    80003f24:	0a000313          	li	t1,160
    80003f28:	0004f3b7          	lui	t2,0x4f
    80003f2c:	ce53839b          	addw	t2,t2,-795 # 4ece5 <_start-0x7ffb131b>
    80003f30:	00d39393          	sll	t2,t2,0xd
    80003f34:	09a38393          	add	t2,t2,154
    80003f38:	00640123          	sb	t1,2(s0)
    80003f3c:	00146e03          	lwu	t3,1(s0)
    80003f40:	75c39263          	bne	t2,t3,80004684 <fail>
    80003f44:	08e00193          	li	gp,142
    80003f48:	0000a337          	lui	t1,0xa
    80003f4c:	2a13031b          	addw	t1,t1,673 # a2a1 <_start-0x7fff5d5f>
    80003f50:	0004f3b7          	lui	t2,0x4f
    80003f54:	5153839b          	addw	t2,t2,1301 # 4f515 <_start-0x7ffb0aeb>
    80003f58:	00d39393          	sll	t2,t2,0xd
    80003f5c:	1a038393          	add	t2,t2,416
    80003f60:	006411a3          	sh	t1,3(s0)
    80003f64:	00246e03          	lwu	t3,2(s0)
    80003f68:	71c39e63          	bne	t2,t3,80004684 <fail>
    80003f6c:	08f00193          	li	gp,143
    80003f70:	0000a337          	lui	t1,0xa
    80003f74:	4a33031b          	addw	t1,t1,1187 # a4a3 <_start-0x7fff5b5d>
    80003f78:	000523b7          	lui	t2,0x52
    80003f7c:	51d3839b          	addw	t2,t2,1309 # 5251d <_start-0x7ffadae3>
    80003f80:	00d39393          	sll	t2,t2,0xd
    80003f84:	2a138393          	add	t2,t2,673
    80003f88:	006412a3          	sh	t1,5(s0)
    80003f8c:	00346e03          	lwu	t3,3(s0)
    80003f90:	6fc39a63          	bne	t2,t3,80004684 <fail>
    80003f94:	09000193          	li	gp,144
    80003f98:	0a500313          	li	t1,165
    80003f9c:	ff0f03b7          	lui	t2,0xff0f0
    80003fa0:	5253839b          	addw	t2,t2,1317 # ffffffffff0f0525 <freelist_head+0xffffffff7f0e551d>
    80003fa4:	00c39393          	sll	t2,t2,0xc
    80003fa8:	1d138393          	add	t2,t2,465
    80003fac:	00c39393          	sll	t2,t2,0xc
    80003fb0:	50d38393          	add	t2,t2,1293
    80003fb4:	00d39393          	sll	t2,t2,0xd
    80003fb8:	59a38393          	add	t2,t2,1434
    80003fbc:	00640123          	sb	t1,2(s0)
    80003fc0:	00143e03          	ld	t3,1(s0)
    80003fc4:	6dc39063          	bne	t2,t3,80004684 <fail>
    80003fc8:	09100193          	li	gp,145
    80003fcc:	0000a337          	lui	t1,0xa
    80003fd0:	7a63031b          	addw	t1,t1,1958 # a7a6 <_start-0x7fff585a>
    80003fd4:	ff8aa3b7          	lui	t2,0xff8aa
    80003fd8:	e9b3839b          	addw	t2,t2,-357 # ffffffffff8a9e9b <freelist_head+0xffffffff7f89ee93>
    80003fdc:	00c39393          	sll	t2,t2,0xc
    80003fe0:	92938393          	add	t2,t2,-1751
    80003fe4:	00d39393          	sll	t2,t2,0xd
    80003fe8:	d1538393          	add	t2,t2,-747
    80003fec:	00d39393          	sll	t2,t2,0xd
    80003ff0:	1a538393          	add	t2,t2,421
    80003ff4:	006413a3          	sh	t1,7(s0)
    80003ff8:	00243e03          	ld	t3,2(s0)
    80003ffc:	69c39463          	bne	t2,t3,80004684 <fail>
    80004000:	09200193          	li	gp,146
    80004004:	0000b337          	lui	t1,0xb
    80004008:	9a83031b          	addw	t1,t1,-1624 # a9a8 <_start-0x7fff5658>
    8000400c:	fea6a3b7          	lui	t2,0xfea6a
    80004010:	29f3839b          	addw	t2,t2,671 # fffffffffea6a29f <freelist_head+0xffffffff7ea5f297>
    80004014:	00c39393          	sll	t2,t2,0xc
    80004018:	9a938393          	add	t2,t2,-1623
    8000401c:	00d39393          	sll	t2,t2,0xd
    80004020:	51d38393          	add	t2,t2,1309
    80004024:	00d39393          	sll	t2,t2,0xd
    80004028:	2a138393          	add	t2,t2,673
    8000402c:	006414a3          	sh	t1,9(s0)
    80004030:	00343e03          	ld	t3,3(s0)
    80004034:	65c39863          	bne	t2,t3,80004684 <fail>
    80004038:	09300193          	li	gp,147
    8000403c:	000ae337          	lui	t1,0xae
    80004040:	acb3031b          	addw	t1,t1,-1333 # adacb <_start-0x7ff52535>
    80004044:	00c31313          	sll	t1,t1,0xc
    80004048:	baa30313          	add	t1,t1,-1110
    8000404c:	fe4aa3b7          	lui	t2,0xfe4aa
    80004050:	a8b3839b          	addw	t2,t2,-1397 # fffffffffe4a9a8b <freelist_head+0xffffffff7e49ea83>
    80004054:	00c39393          	sll	t2,t2,0xc
    80004058:	dad38393          	add	t2,t2,-595
    8000405c:	00c39393          	sll	t2,t2,0xc
    80004060:	abb38393          	add	t2,t2,-1349
    80004064:	00c39393          	sll	t2,t2,0xc
    80004068:	aa238393          	add	t2,t2,-1374
    8000406c:	006422a3          	sw	t1,5(s0)
    80004070:	00443e03          	ld	t3,4(s0)
    80004074:	61c39863          	bne	t2,t3,80004684 <fail>
    80004078:	09400193          	li	gp,148
    8000407c:	000b2337          	lui	t1,0xb2
    80004080:	b0b3031b          	addw	t1,t1,-1269 # b1b0b <_start-0x7ff4e4f5>
    80004084:	00c31313          	sll	t1,t1,0xc
    80004088:	fae30313          	add	t1,t1,-82
    8000408c:	fff2f3b7          	lui	t2,0xfff2f
    80004090:	2593839b          	addw	t2,t2,601 # fffffffffff2f259 <freelist_head+0xffffffff7ff24251>
    80004094:	00d39393          	sll	t2,t2,0xd
    80004098:	b0b38393          	add	t2,t2,-1269
    8000409c:	01039393          	sll	t2,t2,0x10
    800040a0:	aeb38393          	add	t2,t2,-1301
    800040a4:	00c39393          	sll	t2,t2,0xc
    800040a8:	baa38393          	add	t2,t2,-1110
    800040ac:	006423a3          	sw	t1,7(s0)
    800040b0:	00543e03          	ld	t3,5(s0)
    800040b4:	5dc39863          	bne	t2,t3,80004684 <fail>
    800040b8:	09500193          	li	gp,149
    800040bc:	000b6337          	lui	t1,0xb6
    800040c0:	b4b3031b          	addw	t1,t1,-1205 # b5b4b <_start-0x7ff4a4b5>
    800040c4:	00c31313          	sll	t1,t1,0xc
    800040c8:	3b230313          	add	t1,t1,946
    800040cc:	fe6b63b7          	lui	t2,0xfe6b6
    800040d0:	b4b3839b          	addw	t2,t2,-1205 # fffffffffe6b5b4b <freelist_head+0xffffffff7e6aab43>
    800040d4:	00c39393          	sll	t2,t2,0xc
    800040d8:	3b338393          	add	t2,t2,947
    800040dc:	00c39393          	sll	t2,t2,0xc
    800040e0:	afb38393          	add	t2,t2,-1285
    800040e4:	00c39393          	sll	t2,t2,0xc
    800040e8:	eab38393          	add	t2,t2,-341
    800040ec:	006424a3          	sw	t1,9(s0)
    800040f0:	00643e03          	ld	t3,6(s0)
    800040f4:	59c39863          	bne	t2,t3,80004684 <fail>
    800040f8:	09600193          	li	gp,150
    800040fc:	000ba337          	lui	t1,0xba
    80004100:	b8b3031b          	addw	t1,t1,-1141 # b9b8b <_start-0x7ff46475>
    80004104:	00c31313          	sll	t1,t1,0xc
    80004108:	7b630313          	add	t1,t1,1974
    8000410c:	fee6e3b7          	lui	t2,0xfee6e
    80004110:	2df3839b          	addw	t2,t2,735 # fffffffffee6e2df <freelist_head+0xffffffff7ee632d7>
    80004114:	00c39393          	sll	t2,t2,0xc
    80004118:	dad38393          	add	t2,t2,-595
    8000411c:	00e39393          	sll	t2,t2,0xe
    80004120:	b2b38393          	add	t2,t2,-1237
    80004124:	00c39393          	sll	t2,t2,0xc
    80004128:	fae38393          	add	t2,t2,-82
    8000412c:	006425a3          	sw	t1,11(s0)
    80004130:	00743e03          	ld	t3,7(s0)
    80004134:	55c39863          	bne	t2,t3,80004684 <fail>
    80004138:	09700193          	li	gp,151
    8000413c:	0ba00313          	li	t1,186
    80004140:	000033b7          	lui	t2,0x3
    80004144:	1ba3839b          	addw	t2,t2,442 # 31ba <_start-0x7fffce46>
    80004148:	00640fa3          	sb	t1,31(s0)
    8000414c:	01f41e03          	lh	t3,31(s0)
    80004150:	53c39a63          	bne	t2,t3,80004684 <fail>
    80004154:	09800193          	li	gp,152
    80004158:	0bb00313          	li	t1,187
    8000415c:	0000c3b7          	lui	t2,0xc
    80004160:	bba3839b          	addw	t2,t2,-1094 # bbba <_start-0x7fff4446>
    80004164:	02640023          	sb	t1,32(s0)
    80004168:	01f45e03          	lhu	t3,31(s0)
    8000416c:	51c39c63          	bne	t2,t3,80004684 <fail>
    80004170:	09900193          	li	gp,153
    80004174:	0000c337          	lui	t1,0xc
    80004178:	dbc3031b          	addw	t1,t1,-580 # bdbc <_start-0x7fff4244>
    8000417c:	32bbc3b7          	lui	t2,0x32bbc
    80004180:	dbc3839b          	addw	t2,t2,-580 # 32bbbdbc <_start-0x4d444244>
    80004184:	00641f23          	sh	t1,30(s0)
    80004188:	01e42e03          	lw	t3,30(s0)
    8000418c:	4fc39c63          	bne	t2,t3,80004684 <fail>
    80004190:	09a00193          	li	gp,154
    80004194:	0000c337          	lui	t1,0xc
    80004198:	fbe3031b          	addw	t1,t1,-66 # bfbe <_start-0x7fff4042>
    8000419c:	32bfc3b7          	lui	t2,0x32bfc
    800041a0:	ebc3839b          	addw	t2,t2,-324 # 32bfbebc <_start-0x4d404144>
    800041a4:	00641fa3          	sh	t1,31(s0)
    800041a8:	01e42e03          	lw	t3,30(s0)
    800041ac:	4dc39c63          	bne	t2,t3,80004684 <fail>
    800041b0:	09b00193          	li	gp,155
    800041b4:	0000c337          	lui	t1,0xc
    800041b8:	1c03031b          	addw	t1,t1,448 # c1c0 <_start-0x7fff3e40>
    800041bc:	c1c0c3b7          	lui	t2,0xc1c0c
    800041c0:	ebc3839b          	addw	t2,t2,-324 # ffffffffc1c0bebc <freelist_head+0xffffffff41c00eb4>
    800041c4:	02641023          	sh	t1,32(s0)
    800041c8:	01e42e03          	lw	t3,30(s0)
    800041cc:	4bc39c63          	bne	t2,t3,80004684 <fail>
    800041d0:	09c00193          	li	gp,156
    800041d4:	0c200313          	li	t1,194
    800041d8:	33c1c3b7          	lui	t2,0x33c1c
    800041dc:	2be3839b          	addw	t2,t2,702 # 33c1c2be <_start-0x4c3e3d42>
    800041e0:	02640023          	sb	t1,32(s0)
    800041e4:	01f46e03          	lwu	t3,31(s0)
    800041e8:	49c39e63          	bne	t2,t3,80004684 <fail>
    800041ec:	09d00193          	li	gp,157
    800041f0:	0000c337          	lui	t1,0xc
    800041f4:	4c33031b          	addw	t1,t1,1219 # c4c3 <_start-0x7fff3b3d>
    800041f8:	000313b7          	lui	t2,0x31
    800041fc:	30f3839b          	addw	t2,t2,783 # 3130f <_start-0x7ffcecf1>
    80004200:	00e39393          	sll	t2,t2,0xe
    80004204:	c2038393          	add	t2,t2,-992
    80004208:	00641fa3          	sh	t1,31(s0)
    8000420c:	01d46e03          	lwu	t3,29(s0)
    80004210:	47c39a63          	bne	t2,t3,80004684 <fail>
    80004214:	09e00193          	li	gp,158
    80004218:	0000c337          	lui	t1,0xc
    8000421c:	6c53031b          	addw	t1,t1,1733 # c6c5 <_start-0x7fff393b>
    80004220:	000323b7          	lui	t2,0x32
    80004224:	b173839b          	addw	t2,t2,-1257 # 31b17 <_start-0x7ffce4e9>
    80004228:	00e39393          	sll	t2,t2,0xe
    8000422c:	3bc38393          	add	t2,t2,956
    80004230:	02641023          	sh	t1,32(s0)
    80004234:	01e46e03          	lwu	t3,30(s0)
    80004238:	45c39663          	bne	t2,t3,80004684 <fail>
    8000423c:	09f00193          	li	gp,159
    80004240:	0c700313          	li	t1,199
    80004244:	fff1f3b7          	lui	t2,0xfff1f
    80004248:	0ef3839b          	addw	t2,t2,239 # fffffffffff1f0ef <freelist_head+0xffffffff7ff140e7>
    8000424c:	00f39393          	sll	t2,t2,0xf
    80004250:	40338393          	add	t2,t2,1027
    80004254:	00f39393          	sll	t2,t2,0xf
    80004258:	10138393          	add	t2,t2,257
    8000425c:	00c39393          	sll	t2,t2,0xc
    80004260:	80038393          	add	t2,t2,-2048
    80004264:	02640023          	sb	t1,32(s0)
    80004268:	01943e03          	ld	t3,25(s0)
    8000426c:	41c39c63          	bne	t2,t3,80004684 <fail>
    80004270:	0a000193          	li	gp,160
    80004274:	0000d337          	lui	t1,0xd
    80004278:	9c83031b          	addw	t1,t1,-1592 # c9c8 <_start-0x7fff3638>
    8000427c:	fff8e3b7          	lui	t2,0xfff8e
    80004280:	9393839b          	addw	t2,t2,-1735 # fffffffffff8d939 <freelist_head+0xffffffff7ff82931>
    80004284:	00e39393          	sll	t2,t2,0xe
    80004288:	5e138393          	add	t2,t2,1505
    8000428c:	01139393          	sll	t2,t2,0x11
    80004290:	18138393          	add	t2,t2,385
    80004294:	00c39393          	sll	t2,t2,0xc
    80004298:	00838393          	add	t2,t2,8
    8000429c:	00641fa3          	sh	t1,31(s0)
    800042a0:	01a43e03          	ld	t3,26(s0)
    800042a4:	3fc39063          	bne	t2,t3,80004684 <fail>
    800042a8:	0a100193          	li	gp,161
    800042ac:	0000d337          	lui	t1,0xd
    800042b0:	bca3031b          	addw	t1,t1,-1078 # cbca <_start-0x7fff3436>
    800042b4:	00cf23b7          	lui	t2,0xcf2
    800042b8:	b2f3839b          	addw	t2,t2,-1233 # cf1b2f <_start-0x7f30e4d1>
    800042bc:	00c39393          	sll	t2,t2,0xc
    800042c0:	2af38393          	add	t2,t2,687
    800042c4:	00d39393          	sll	t2,t2,0xd
    800042c8:	10138393          	add	t2,t2,257
    800042cc:	00d39393          	sll	t2,t2,0xd
    800042d0:	81038393          	add	t2,t2,-2032
    800042d4:	00641fa3          	sh	t1,31(s0)
    800042d8:	01b43e03          	ld	t3,27(s0)
    800042dc:	3bc39463          	bne	t2,t3,80004684 <fail>
    800042e0:	0a200193          	li	gp,162
    800042e4:	000d0337          	lui	t1,0xd0
    800042e8:	ced3031b          	addw	t1,t1,-787 # cfced <_start-0x7ff30313>
    800042ec:	00c31313          	sll	t1,t1,0xc
    800042f0:	dcc30313          	add	t1,t1,-564
    800042f4:	ff3f43b7          	lui	t2,0xff3f4
    800042f8:	b373839b          	addw	t2,t2,-1225 # ffffffffff3f3b37 <freelist_head+0xffffffff7f3e8b2f>
    800042fc:	00d39393          	sll	t2,t2,0xd
    80004300:	66538393          	add	t2,t2,1637
    80004304:	00c39393          	sll	t2,t2,0xc
    80004308:	5e138393          	add	t2,t2,1505
    8000430c:	00d39393          	sll	t2,t2,0xd
    80004310:	01838393          	add	t2,t2,24
    80004314:	02642023          	sw	t1,32(s0)
    80004318:	01c43e03          	ld	t3,28(s0)
    8000431c:	37c39463          	bne	t2,t3,80004684 <fail>
    80004320:	0a300193          	li	gp,163
    80004324:	000d4337          	lui	t1,0xd4
    80004328:	d2d3031b          	addw	t1,t1,-723 # d3d2d <_start-0x7ff2c2d3>
    8000432c:	00c31313          	sll	t1,t1,0xc
    80004330:	1d030313          	add	t1,t1,464
    80004334:	000d73b7          	lui	t2,0xd7
    80004338:	3f53839b          	addw	t2,t2,1013 # d73f5 <_start-0x7ff28c0b>
    8000433c:	00e39393          	sll	t2,t2,0xe
    80004340:	d2d38393          	add	t2,t2,-723
    80004344:	00e39393          	sll	t2,t2,0xe
    80004348:	74338393          	add	t2,t2,1859
    8000434c:	00e39393          	sll	t2,t2,0xe
    80004350:	c2038393          	add	t2,t2,-992
    80004354:	00642fa3          	sw	t1,31(s0)
    80004358:	01d43e03          	ld	t3,29(s0)
    8000435c:	33c39463          	bne	t2,t3,80004684 <fail>
    80004360:	0a400193          	li	gp,164
    80004364:	000d8337          	lui	t1,0xd8
    80004368:	d6d3031b          	addw	t1,t1,-659 # d7d6d <_start-0x7ff28293>
    8000436c:	00c31313          	sll	t1,t1,0xc
    80004370:	5d430313          	add	t1,t1,1492
    80004374:	000363b7          	lui	t2,0x36
    80004378:	35d3839b          	addw	t2,t2,861 # 3635d <_start-0x7ffc9ca3>
    8000437c:	01139393          	sll	t2,t2,0x11
    80004380:	a7b38393          	add	t2,t2,-1413
    80004384:	00f39393          	sll	t2,t2,0xf
    80004388:	d6d38393          	add	t2,t2,-659
    8000438c:	00c39393          	sll	t2,t2,0xc
    80004390:	5d438393          	add	t2,t2,1492
    80004394:	00642f23          	sw	t1,30(s0)
    80004398:	01e43e03          	ld	t3,30(s0)
    8000439c:	2fc39463          	bne	t2,t3,80004684 <fail>
    800043a0:	0a500193          	li	gp,165
    800043a4:	0006e337          	lui	t1,0x6e
    800043a8:	ed73031b          	addw	t1,t1,-297 # 6ded7 <_start-0x7ff92129>
    800043ac:	00d31313          	sll	t1,t1,0xd
    800043b0:	9d830313          	add	t1,t1,-1576
    800043b4:	00dce3b7          	lui	t2,0xdce
    800043b8:	8d73839b          	addw	t2,t2,-1833 # dcd8d7 <_start-0x7f232729>
    800043bc:	00c39393          	sll	t2,t2,0xc
    800043c0:	3f538393          	add	t2,t2,1013
    800043c4:	00d39393          	sll	t2,t2,0xd
    800043c8:	ebf38393          	add	t2,t2,-321
    800043cc:	00d39393          	sll	t2,t2,0xd
    800043d0:	bda38393          	add	t2,t2,-1062
    800043d4:	00642ea3          	sw	t1,29(s0)
    800043d8:	01f43e03          	ld	t3,31(s0)
    800043dc:	2bc39463          	bne	t2,t3,80004684 <fail>
    800043e0:	0a600193          	li	gp,166
    800043e4:	0dc00313          	li	t1,220
    800043e8:	ffff93b7          	lui	t2,0xffff9
    800043ec:	1dc3839b          	addw	t2,t2,476 # ffffffffffff91dc <freelist_head+0xffffffff7ffee1d4>
    800043f0:	02640fa3          	sb	t1,63(s0)
    800043f4:	03f41e03          	lh	t3,63(s0)
    800043f8:	29c39663          	bne	t2,t3,80004684 <fail>
    800043fc:	0a700193          	li	gp,167
    80004400:	0dd00313          	li	t1,221
    80004404:	0000e3b7          	lui	t2,0xe
    80004408:	ddc3839b          	addw	t2,t2,-548 # dddc <_start-0x7fff2224>
    8000440c:	04640023          	sb	t1,64(s0)
    80004410:	03f45e03          	lhu	t3,63(s0)
    80004414:	27c39863          	bne	t2,t3,80004684 <fail>
    80004418:	0a800193          	li	gp,168
    8000441c:	0000e337          	lui	t1,0xe
    80004420:	fde3031b          	addw	t1,t1,-34 # dfde <_start-0x7fff2022>
    80004424:	92dde3b7          	lui	t2,0x92dde
    80004428:	fde3839b          	addw	t2,t2,-34 # ffffffff92dddfde <freelist_head+0xffffffff12dd2fd6>
    8000442c:	02641f23          	sh	t1,62(s0)
    80004430:	03e42e03          	lw	t3,62(s0)
    80004434:	25c39863          	bne	t2,t3,80004684 <fail>
    80004438:	0a900193          	li	gp,169
    8000443c:	0000e337          	lui	t1,0xe
    80004440:	1e03031b          	addw	t1,t1,480 # e1e0 <_start-0x7fff1e20>
    80004444:	92e1e3b7          	lui	t2,0x92e1e
    80004448:	0de3839b          	addw	t2,t2,222 # ffffffff92e1e0de <freelist_head+0xffffffff12e130d6>
    8000444c:	02641fa3          	sh	t1,63(s0)
    80004450:	03e42e03          	lw	t3,62(s0)
    80004454:	23c39863          	bne	t2,t3,80004684 <fail>
    80004458:	0aa00193          	li	gp,170
    8000445c:	0000e337          	lui	t1,0xe
    80004460:	3e23031b          	addw	t1,t1,994 # e3e2 <_start-0x7fff1c1e>
    80004464:	e3e2e3b7          	lui	t2,0xe3e2e
    80004468:	0de3839b          	addw	t2,t2,222 # ffffffffe3e2e0de <freelist_head+0xffffffff63e230d6>
    8000446c:	04641023          	sh	t1,64(s0)
    80004470:	03e42e03          	lw	t3,62(s0)
    80004474:	21c39863          	bne	t2,t3,80004684 <fail>
    80004478:	0ab00193          	li	gp,171
    8000447c:	0e400313          	li	t1,228
    80004480:	0004a3b7          	lui	t2,0x4a
    80004484:	f1f3839b          	addw	t2,t2,-225 # 49f1f <_start-0x7ffb60e1>
    80004488:	00d39393          	sll	t2,t2,0xd
    8000448c:	4e038393          	add	t2,t2,1248
    80004490:	04640023          	sb	t1,64(s0)
    80004494:	03f46e03          	lwu	t3,63(s0)
    80004498:	1fc39663          	bne	t2,t3,80004684 <fail>
    8000449c:	0ac00193          	li	gp,172
    800044a0:	0000e337          	lui	t1,0xe
    800044a4:	6e53031b          	addw	t1,t1,1765 # e6e5 <_start-0x7fff191b>
    800044a8:	000733b7          	lui	t2,0x73
    800044ac:	72f3839b          	addw	t2,t2,1839 # 7372f <_start-0x7ff8c8d1>
    800044b0:	00d39393          	sll	t2,t2,0xd
    800044b4:	e8038393          	add	t2,t2,-384
    800044b8:	02641fa3          	sh	t1,63(s0)
    800044bc:	03d46e03          	lwu	t3,61(s0)
    800044c0:	1dc39263          	bne	t2,t3,80004684 <fail>
    800044c4:	0ad00193          	li	gp,173
    800044c8:	0000f337          	lui	t1,0xf
    800044cc:	8e73031b          	addw	t1,t1,-1817 # e8e7 <_start-0x7fff1719>
    800044d0:	000743b7          	lui	t2,0x74
    800044d4:	73f3839b          	addw	t2,t2,1855 # 7473f <_start-0x7ff8b8c1>
    800044d8:	00d39393          	sll	t2,t2,0xd
    800044dc:	5de38393          	add	t2,t2,1502
    800044e0:	04641023          	sh	t1,64(s0)
    800044e4:	03e46e03          	lwu	t3,62(s0)
    800044e8:	19c39e63          	bne	t2,t3,80004684 <fail>
    800044ec:	0ae00193          	li	gp,174
    800044f0:	0e900313          	li	t1,233
    800044f4:	ffd3d3b7          	lui	t2,0xffd3d
    800044f8:	bbd3839b          	addw	t2,t2,-1091 # ffffffffffd3cbbd <freelist_head+0xffffffff7fd31bb5>
    800044fc:	00c39393          	sll	t2,t2,0xc
    80004500:	00f38393          	add	t2,t2,15
    80004504:	00f39393          	sll	t2,t2,0xf
    80004508:	70738393          	add	t2,t2,1799
    8000450c:	00c39393          	sll	t2,t2,0xc
    80004510:	86038393          	add	t2,t2,-1952
    80004514:	04640023          	sb	t1,64(s0)
    80004518:	03943e03          	ld	t3,57(s0)
    8000451c:	17c39463          	bne	t2,t3,80004684 <fail>
    80004520:	0af00193          	li	gp,175
    80004524:	0000f337          	lui	t1,0xf
    80004528:	bea3031b          	addw	t1,t1,-1046 # ebea <_start-0x7fff1416>
    8000452c:	d1d7d3b7          	lui	t2,0xd1d7d
    80004530:	5bd3839b          	addw	t2,t2,1469 # ffffffffd1d7d5bd <freelist_head+0xffffffff51d725b5>
    80004534:	01339393          	sll	t2,t2,0x13
    80004538:	78738393          	add	t2,t2,1927
    8000453c:	00c39393          	sll	t2,t2,0xc
    80004540:	06838393          	add	t2,t2,104
    80004544:	02641fa3          	sh	t1,63(s0)
    80004548:	03a43e03          	ld	t3,58(s0)
    8000454c:	13c39c63          	bne	t2,t3,80004684 <fail>
    80004550:	0b000193          	li	gp,176
    80004554:	0000f337          	lui	t1,0xf
    80004558:	dec3031b          	addw	t1,t1,-532 # edec <_start-0x7fff1214>
    8000455c:	ffc9f3b7          	lui	t2,0xffc9f
    80004560:	4773839b          	addw	t2,t2,1143 # ffffffffffc9f477 <freelist_head+0xffffffff7fc9446f>
    80004564:	00c39393          	sll	t2,t2,0xc
    80004568:	f6738393          	add	t2,t2,-153
    8000456c:	00e39393          	sll	t2,t2,0xe
    80004570:	d0138393          	add	t2,t2,-767
    80004574:	00f39393          	sll	t2,t2,0xf
    80004578:	87038393          	add	t2,t2,-1936
    8000457c:	02641fa3          	sh	t1,63(s0)
    80004580:	03b43e03          	ld	t3,59(s0)
    80004584:	11c39063          	bne	t2,t3,80004684 <fail>
    80004588:	0b100193          	li	gp,177
    8000458c:	000f2337          	lui	t1,0xf2
    80004590:	f0f3031b          	addw	t1,t1,-241 # f1f0f <_start-0x7ff0e0f1>
    80004594:	00c31313          	sll	t1,t1,0xc
    80004598:	fee30313          	add	t1,t1,-18
    8000459c:	ffff23b7          	lui	t2,0xffff2
    800045a0:	f0f3839b          	addw	t2,t2,-241 # ffffffffffff1f0f <freelist_head+0xffffffff7ffe6f07>
    800045a4:	01039393          	sll	t2,t2,0x10
    800045a8:	eef38393          	add	t2,t2,-273
    800045ac:	00d39393          	sll	t2,t2,0xd
    800045b0:	9bd38393          	add	t2,t2,-1603
    800045b4:	00f39393          	sll	t2,t2,0xf
    800045b8:	07838393          	add	t2,t2,120
    800045bc:	04642023          	sw	t1,64(s0)
    800045c0:	03c43e03          	ld	t3,60(s0)
    800045c4:	0dc39063          	bne	t2,t3,80004684 <fail>
    800045c8:	0b200193          	li	gp,178
    800045cc:	000f6337          	lui	t1,0xf6
    800045d0:	f4f3031b          	addw	t1,t1,-177 # f5f4f <_start-0x7ff0a0b1>
    800045d4:	00c31313          	sll	t1,t1,0xc
    800045d8:	3f230313          	add	t1,t1,1010
    800045dc:	ffcb03b7          	lui	t2,0xffcb0
    800045e0:	8fb3839b          	addw	t2,t2,-1797 # ffffffffffcaf8fb <freelist_head+0xffffffff7fca48f3>
    800045e4:	00f39393          	sll	t2,t2,0xf
    800045e8:	d3d38393          	add	t2,t2,-707
    800045ec:	00d39393          	sll	t2,t2,0xd
    800045f0:	f9738393          	add	t2,t2,-105
    800045f4:	00d39393          	sll	t2,t2,0xd
    800045f8:	e8038393          	add	t2,t2,-384
    800045fc:	02642fa3          	sw	t1,63(s0)
    80004600:	03d43e03          	ld	t3,61(s0)
    80004604:	09c39063          	bne	t2,t3,80004684 <fail>
    80004608:	0b300193          	li	gp,179
    8000460c:	000fa337          	lui	t1,0xfa
    80004610:	f8f3031b          	addw	t1,t1,-113 # f9f8f <_start-0x7ff06071>
    80004614:	00c31313          	sll	t1,t1,0xc
    80004618:	7f630313          	add	t1,t1,2038
    8000461c:	ffcb53b7          	lui	t2,0xffcb5
    80004620:	af93839b          	addw	t2,t2,-1287 # ffffffffffcb4af9 <freelist_head+0xffffffff7fca9af1>
    80004624:	01039393          	sll	t2,t2,0x10
    80004628:	afd38393          	add	t2,t2,-1283
    8000462c:	00d39393          	sll	t2,t2,0xd
    80004630:	f8f38393          	add	t2,t2,-113
    80004634:	00c39393          	sll	t2,t2,0xc
    80004638:	7f638393          	add	t2,t2,2038
    8000463c:	02642f23          	sw	t1,62(s0)
    80004640:	03e43e03          	ld	t3,62(s0)
    80004644:	05c39063          	bne	t2,t3,80004684 <fail>
    80004648:	0b400193          	li	gp,180
    8000464c:	00010337          	lui	t1,0x10
    80004650:	dfd3031b          	addw	t1,t1,-515 # fdfd <_start-0x7fff0203>
    80004654:	01031313          	sll	t1,t1,0x10
    80004658:	bfa30313          	add	t1,t1,-1030
    8000465c:	cbcb53b7          	lui	t2,0xcbcb5
    80004660:	af93839b          	addw	t2,t2,-1287 # ffffffffcbcb4af9 <freelist_head+0xffffffff4bca9af1>
    80004664:	01039393          	sll	t2,t2,0x10
    80004668:	afd38393          	add	t2,t2,-1283
    8000466c:	01139393          	sll	t2,t2,0x11
    80004670:	dfc38393          	add	t2,t2,-516
    80004674:	02642ea3          	sw	t1,61(s0)
    80004678:	03f43e03          	ld	t3,63(s0)
    8000467c:	01c39463          	bne	t2,t3,80004684 <fail>
    80004680:	00301a63          	bne	zero,gp,80004694 <pass>

0000000080004684 <fail>:
    80004684:	00119513          	sll	a0,gp,0x1
    80004688:	00050063          	beqz	a0,80004688 <fail+0x4>
    8000468c:	00156513          	or	a0,a0,1
    80004690:	00000073          	ecall

0000000080004694 <pass>:
    80004694:	00100513          	li	a0,1
    80004698:	00000073          	ecall
    8000469c:	c0001073          	unimp

Desensamblado de la sección .data:

0000000080005000 <begin_signature>:
    80005000:	0100                	.2byte	0x100
    80005002:	0302                	.2byte	0x302
    80005004:	0504                	.2byte	0x504
    80005006:	0706                	.2byte	0x706
    80005008:	0908                	.2byte	0x908
    8000500a:	0b0a                	.2byte	0xb0a
    8000500c:	0d0c                	.2byte	0xd0c
    8000500e:	0f0e                	.2byte	0xf0e
    80005010:	1110                	.2byte	0x1110
    80005012:	1312                	.2byte	0x1312
    80005014:	1514                	.2byte	0x1514
    80005016:	1716                	.2byte	0x1716
    80005018:	1918                	.2byte	0x1918
    8000501a:	1b1a                	.2byte	0x1b1a
    8000501c:	1d1c                	.2byte	0x1d1c
    8000501e:	1f1e                	.2byte	0x1f1e
    80005020:	2120                	.2byte	0x2120
    80005022:	2322                	.2byte	0x2322
    80005024:	2524                	.2byte	0x2524
    80005026:	2726                	.2byte	0x2726
    80005028:	2928                	.2byte	0x2928
    8000502a:	2b2a                	.2byte	0x2b2a
    8000502c:	2d2c                	.2byte	0x2d2c
    8000502e:	2f2e                	.2byte	0x2f2e
    80005030:	3130                	.2byte	0x3130
    80005032:	3332                	.2byte	0x3332
    80005034:	3534                	.2byte	0x3534
    80005036:	3736                	.2byte	0x3736
    80005038:	3938                	.2byte	0x3938
    8000503a:	3b3a                	.2byte	0x3b3a
    8000503c:	3d3c                	.2byte	0x3d3c
    8000503e:	3f3e                	.2byte	0x3f3e
    80005040:	4140                	.2byte	0x4140
    80005042:	4342                	.2byte	0x4342
    80005044:	4544                	.2byte	0x4544
    80005046:	4746                	.2byte	0x4746
    80005048:	4948                	.2byte	0x4948
    8000504a:	4b4a                	.2byte	0x4b4a
    8000504c:	4d4c                	.2byte	0x4d4c
    8000504e:	4f4e                	.2byte	0x4f4e
    80005050:	5150                	.2byte	0x5150
    80005052:	5352                	.2byte	0x5352
    80005054:	5554                	.2byte	0x5554
    80005056:	5756                	.2byte	0x5756
    80005058:	5958                	.2byte	0x5958
    8000505a:	5b5a                	.2byte	0x5b5a
    8000505c:	5d5c                	.2byte	0x5d5c
    8000505e:	5f5e                	.2byte	0x5f5e
    80005060:	6160                	.2byte	0x6160
    80005062:	6362                	.2byte	0x6362
    80005064:	6564                	.2byte	0x6564
    80005066:	6766                	.2byte	0x6766
    80005068:	6968                	.2byte	0x6968
    8000506a:	6b6a                	.2byte	0x6b6a
    8000506c:	6d6c                	.2byte	0x6d6c
    8000506e:	6f6e                	.2byte	0x6f6e
    80005070:	7170                	.2byte	0x7170
    80005072:	7372                	.2byte	0x7372
    80005074:	7574                	.2byte	0x7574
    80005076:	7776                	.2byte	0x7776
    80005078:	7978                	.2byte	0x7978
    8000507a:	7b7a                	.2byte	0x7b7a
    8000507c:	7d7c                	.2byte	0x7d7c
    8000507e:	7f7e                	.2byte	0x7f7e
    80005080:	5050                	.2byte	0x5050
    80005082:	5050                	.2byte	0x5050
    80005084:	5050                	.2byte	0x5050
    80005086:	5050                	.2byte	0x5050
    80005088:	5050                	.2byte	0x5050
    8000508a:	5050                	.2byte	0x5050
    8000508c:	5050                	.2byte	0x5050
    8000508e:	5050                	.2byte	0x5050
    80005090:	5050                	.2byte	0x5050
    80005092:	5050                	.2byte	0x5050
    80005094:	5050                	.2byte	0x5050
    80005096:	5050                	.2byte	0x5050
    80005098:	5050                	.2byte	0x5050
    8000509a:	5050                	.2byte	0x5050
    8000509c:	5050                	.2byte	0x5050
    8000509e:	5050                	.2byte	0x5050
    800050a0:	5050                	.2byte	0x5050
    800050a2:	5050                	.2byte	0x5050
    800050a4:	5050                	.2byte	0x5050
    800050a6:	5050                	.2byte	0x5050
    800050a8:	5050                	.2byte	0x5050
    800050aa:	5050                	.2byte	0x5050
    800050ac:	5050                	.2byte	0x5050
    800050ae:	5050                	.2byte	0x5050
    800050b0:	5050                	.2byte	0x5050
    800050b2:	5050                	.2byte	0x5050
    800050b4:	5050                	.2byte	0x5050
    800050b6:	5050                	.2byte	0x5050
    800050b8:	5050                	.2byte	0x5050
    800050ba:	5050                	.2byte	0x5050
    800050bc:	5050                	.2byte	0x5050
    800050be:	5050                	.2byte	0x5050
    800050c0:	5050                	.2byte	0x5050
    800050c2:	5050                	.2byte	0x5050
    800050c4:	5050                	.2byte	0x5050
    800050c6:	5050                	.2byte	0x5050
    800050c8:	5050                	.2byte	0x5050
    800050ca:	5050                	.2byte	0x5050
    800050cc:	5050                	.2byte	0x5050
    800050ce:	5050                	.2byte	0x5050
    800050d0:	5050                	.2byte	0x5050
    800050d2:	5050                	.2byte	0x5050
    800050d4:	5050                	.2byte	0x5050
    800050d6:	5050                	.2byte	0x5050
    800050d8:	5050                	.2byte	0x5050
    800050da:	5050                	.2byte	0x5050
    800050dc:	5050                	.2byte	0x5050
    800050de:	5050                	.2byte	0x5050
    800050e0:	5050                	.2byte	0x5050
    800050e2:	5050                	.2byte	0x5050
    800050e4:	5050                	.2byte	0x5050
    800050e6:	5050                	.2byte	0x5050
    800050e8:	5050                	.2byte	0x5050
    800050ea:	5050                	.2byte	0x5050
    800050ec:	5050                	.2byte	0x5050
    800050ee:	5050                	.2byte	0x5050
    800050f0:	5050                	.2byte	0x5050
    800050f2:	5050                	.2byte	0x5050
    800050f4:	5050                	.2byte	0x5050
    800050f6:	5050                	.2byte	0x5050
    800050f8:	5050                	.2byte	0x5050
    800050fa:	5050                	.2byte	0x5050
    800050fc:	5050                	.2byte	0x5050
    800050fe:	5050                	.2byte	0x5050
    80005100:	5050                	.2byte	0x5050
    80005102:	5050                	.2byte	0x5050
    80005104:	5050                	.2byte	0x5050
    80005106:	5050                	.2byte	0x5050
    80005108:	5050                	.2byte	0x5050
    8000510a:	5050                	.2byte	0x5050
    8000510c:	5050                	.2byte	0x5050
    8000510e:	5050                	.2byte	0x5050
    80005110:	5050                	.2byte	0x5050
    80005112:	5050                	.2byte	0x5050
    80005114:	5050                	.2byte	0x5050
    80005116:	5050                	.2byte	0x5050
    80005118:	5050                	.2byte	0x5050
    8000511a:	5050                	.2byte	0x5050
    8000511c:	5050                	.2byte	0x5050
    8000511e:	5050                	.2byte	0x5050
    80005120:	5050                	.2byte	0x5050
    80005122:	5050                	.2byte	0x5050
    80005124:	5050                	.2byte	0x5050
    80005126:	5050                	.2byte	0x5050
    80005128:	5050                	.2byte	0x5050
    8000512a:	5050                	.2byte	0x5050
    8000512c:	5050                	.2byte	0x5050
    8000512e:	5050                	.2byte	0x5050
    80005130:	5050                	.2byte	0x5050
    80005132:	5050                	.2byte	0x5050
    80005134:	5050                	.2byte	0x5050
    80005136:	5050                	.2byte	0x5050
    80005138:	5050                	.2byte	0x5050
    8000513a:	5050                	.2byte	0x5050
    8000513c:	5050                	.2byte	0x5050
    8000513e:	5050                	.2byte	0x5050
    80005140:	5050                	.2byte	0x5050
    80005142:	5050                	.2byte	0x5050
    80005144:	5050                	.2byte	0x5050
    80005146:	5050                	.2byte	0x5050
    80005148:	5050                	.2byte	0x5050
    8000514a:	5050                	.2byte	0x5050
    8000514c:	5050                	.2byte	0x5050
    8000514e:	5050                	.2byte	0x5050
    80005150:	5050                	.2byte	0x5050
    80005152:	5050                	.2byte	0x5050
    80005154:	5050                	.2byte	0x5050
    80005156:	5050                	.2byte	0x5050
    80005158:	5050                	.2byte	0x5050
    8000515a:	5050                	.2byte	0x5050
    8000515c:	5050                	.2byte	0x5050
    8000515e:	5050                	.2byte	0x5050
    80005160:	5050                	.2byte	0x5050
    80005162:	5050                	.2byte	0x5050
    80005164:	5050                	.2byte	0x5050
    80005166:	5050                	.2byte	0x5050
    80005168:	5050                	.2byte	0x5050
    8000516a:	5050                	.2byte	0x5050
    8000516c:	5050                	.2byte	0x5050
    8000516e:	5050                	.2byte	0x5050
    80005170:	5050                	.2byte	0x5050
    80005172:	5050                	.2byte	0x5050
    80005174:	5050                	.2byte	0x5050
    80005176:	5050                	.2byte	0x5050
    80005178:	5050                	.2byte	0x5050
    8000517a:	5050                	.2byte	0x5050
    8000517c:	5050                	.2byte	0x5050
    8000517e:	50              	Address 0x8000517e is out of bounds.

