
rv64ui-v-xor:     formato del fichero elf64-littleriscv


Desensamblado de la sección .text.init:

0000000080000000 <_start>:
    80000000:	00c0006f          	j	8000000c <handle_reset>

0000000080000004 <nmi_vector>:
    80000004:	2bc0206f          	j	800022c0 <wtf>

0000000080000008 <trap_vector>:
    80000008:	2b80206f          	j	800022c0 <wtf>

000000008000000c <handle_reset>:
    8000000c:	00000093          	li	ra,0
    80000010:	00000113          	li	sp,0
    80000014:	00000193          	li	gp,0
    80000018:	00000213          	li	tp,0
    8000001c:	00000293          	li	t0,0
    80000020:	00000313          	li	t1,0
    80000024:	00000393          	li	t2,0
    80000028:	00000413          	li	s0,0
    8000002c:	00000493          	li	s1,0
    80000030:	00000513          	li	a0,0
    80000034:	00000593          	li	a1,0
    80000038:	00000613          	li	a2,0
    8000003c:	00000693          	li	a3,0
    80000040:	00000713          	li	a4,0
    80000044:	00000793          	li	a5,0
    80000048:	00000813          	li	a6,0
    8000004c:	00000893          	li	a7,0
    80000050:	00000913          	li	s2,0
    80000054:	00000993          	li	s3,0
    80000058:	00000a13          	li	s4,0
    8000005c:	00000a93          	li	s5,0
    80000060:	00000b13          	li	s6,0
    80000064:	00000b93          	li	s7,0
    80000068:	00000c13          	li	s8,0
    8000006c:	00000c93          	li	s9,0
    80000070:	00000d13          	li	s10,0
    80000074:	00000d93          	li	s11,0
    80000078:	00000e13          	li	t3,0
    8000007c:	00000e93          	li	t4,0
    80000080:	00000f13          	li	t5,0
    80000084:	00000f93          	li	t6,0
    80000088:	00000297          	auipc	t0,0x0
    8000008c:	01028293          	add	t0,t0,16 # 80000098 <handle_reset+0x8c>
    80000090:	30529073          	csrw	mtvec,t0
    80000094:	74445073          	csrw	0x744,8
    80000098:	00000297          	auipc	t0,0x0
    8000009c:	f7028293          	add	t0,t0,-144 # 80000008 <trap_vector>
    800000a0:	30529073          	csrw	mtvec,t0
    800000a4:	0000d117          	auipc	sp,0xd
    800000a8:	e3c10113          	add	sp,sp,-452 # 8000cee0 <freelist_head+0x3ed8>
    800000ac:	f14022f3          	csrr	t0,mhartid
    800000b0:	00c29293          	sll	t0,t0,0xc
    800000b4:	00510133          	add	sp,sp,t0
    800000b8:	34011073          	csrw	mscratch,sp
    800000bc:	13d020ef          	jal	800029f8 <extra_boot>
    800000c0:	00003517          	auipc	a0,0x3
    800000c4:	94c50513          	add	a0,a0,-1716 # 80002a0c <userstart>
    800000c8:	7340206f          	j	800027fc <vm_boot>

00000000800000cc <pop_tf>:
    800000cc:	10853283          	ld	t0,264(a0)
    800000d0:	14129073          	csrw	sepc,t0
    800000d4:	00853083          	ld	ra,8(a0)
    800000d8:	01053103          	ld	sp,16(a0)
    800000dc:	01853183          	ld	gp,24(a0)
    800000e0:	02053203          	ld	tp,32(a0)
    800000e4:	02853283          	ld	t0,40(a0)
    800000e8:	03053303          	ld	t1,48(a0)
    800000ec:	03853383          	ld	t2,56(a0)
    800000f0:	04053403          	ld	s0,64(a0)
    800000f4:	04853483          	ld	s1,72(a0)
    800000f8:	05853583          	ld	a1,88(a0)
    800000fc:	06053603          	ld	a2,96(a0)
    80000100:	06853683          	ld	a3,104(a0)
    80000104:	07053703          	ld	a4,112(a0)
    80000108:	07853783          	ld	a5,120(a0)
    8000010c:	08053803          	ld	a6,128(a0)
    80000110:	08853883          	ld	a7,136(a0)
    80000114:	09053903          	ld	s2,144(a0)
    80000118:	09853983          	ld	s3,152(a0)
    8000011c:	0a053a03          	ld	s4,160(a0)
    80000120:	0a853a83          	ld	s5,168(a0)
    80000124:	0b053b03          	ld	s6,176(a0)
    80000128:	0b853b83          	ld	s7,184(a0)
    8000012c:	0c053c03          	ld	s8,192(a0)
    80000130:	0c853c83          	ld	s9,200(a0)
    80000134:	0d053d03          	ld	s10,208(a0)
    80000138:	0d853d83          	ld	s11,216(a0)
    8000013c:	0e053e03          	ld	t3,224(a0)
    80000140:	0e853e83          	ld	t4,232(a0)
    80000144:	0f053f03          	ld	t5,240(a0)
    80000148:	0f853f83          	ld	t6,248(a0)
    8000014c:	05053503          	ld	a0,80(a0)
    80000150:	10200073          	sret

0000000080000154 <trap_entry>:
    80000154:	14011173          	csrrw	sp,sscratch,sp
    80000158:	00113423          	sd	ra,8(sp)
    8000015c:	00313c23          	sd	gp,24(sp)
    80000160:	02413023          	sd	tp,32(sp)
    80000164:	02513423          	sd	t0,40(sp)
    80000168:	02613823          	sd	t1,48(sp)
    8000016c:	02713c23          	sd	t2,56(sp)
    80000170:	04813023          	sd	s0,64(sp)
    80000174:	04913423          	sd	s1,72(sp)
    80000178:	04a13823          	sd	a0,80(sp)
    8000017c:	04b13c23          	sd	a1,88(sp)
    80000180:	06c13023          	sd	a2,96(sp)
    80000184:	06d13423          	sd	a3,104(sp)
    80000188:	06e13823          	sd	a4,112(sp)
    8000018c:	06f13c23          	sd	a5,120(sp)
    80000190:	09013023          	sd	a6,128(sp)
    80000194:	09113423          	sd	a7,136(sp)
    80000198:	09213823          	sd	s2,144(sp)
    8000019c:	09313c23          	sd	s3,152(sp)
    800001a0:	0b413023          	sd	s4,160(sp)
    800001a4:	0b513423          	sd	s5,168(sp)
    800001a8:	0b613823          	sd	s6,176(sp)
    800001ac:	0b713c23          	sd	s7,184(sp)
    800001b0:	0d813023          	sd	s8,192(sp)
    800001b4:	0d913423          	sd	s9,200(sp)
    800001b8:	0da13823          	sd	s10,208(sp)
    800001bc:	0db13c23          	sd	s11,216(sp)
    800001c0:	0fc13023          	sd	t3,224(sp)
    800001c4:	0fd13423          	sd	t4,232(sp)
    800001c8:	0fe13823          	sd	t5,240(sp)
    800001cc:	0ff13c23          	sd	t6,248(sp)
    800001d0:	140112f3          	csrrw	t0,sscratch,sp
    800001d4:	00513823          	sd	t0,16(sp)
    800001d8:	100022f3          	csrr	t0,sstatus
    800001dc:	10513023          	sd	t0,256(sp)
    800001e0:	141022f3          	csrr	t0,sepc
    800001e4:	10513423          	sd	t0,264(sp)
    800001e8:	143022f3          	csrr	t0,stval
    800001ec:	10513823          	sd	t0,272(sp)
    800001f0:	142022f3          	csrr	t0,scause
    800001f4:	10513c23          	sd	t0,280(sp)
    800001f8:	00010513          	mv	a0,sp
    800001fc:	37c0206f          	j	80002578 <handle_trap>

Desensamblado de la sección .text:

0000000080002000 <memcpy>:
    80002000:	00b567b3          	or	a5,a0,a1
    80002004:	00c7e7b3          	or	a5,a5,a2
    80002008:	0077f793          	and	a5,a5,7
    8000200c:	00c506b3          	add	a3,a0,a2
    80002010:	02078463          	beqz	a5,80002038 <memcpy+0x38>
    80002014:	00c58633          	add	a2,a1,a2
    80002018:	00050793          	mv	a5,a0
    8000201c:	02d57e63          	bgeu	a0,a3,80002058 <memcpy+0x58>
    80002020:	0005c703          	lbu	a4,0(a1)
    80002024:	00158593          	add	a1,a1,1
    80002028:	00178793          	add	a5,a5,1
    8000202c:	fee78fa3          	sb	a4,-1(a5)
    80002030:	fec598e3          	bne	a1,a2,80002020 <memcpy+0x20>
    80002034:	00008067          	ret
    80002038:	fed57ee3          	bgeu	a0,a3,80002034 <memcpy+0x34>
    8000203c:	00050793          	mv	a5,a0
    80002040:	0005b703          	ld	a4,0(a1)
    80002044:	00878793          	add	a5,a5,8
    80002048:	00858593          	add	a1,a1,8
    8000204c:	fee7bc23          	sd	a4,-8(a5)
    80002050:	fed7e8e3          	bltu	a5,a3,80002040 <memcpy+0x40>
    80002054:	00008067          	ret
    80002058:	00008067          	ret

000000008000205c <memset>:
    8000205c:	ff010113          	add	sp,sp,-16
    80002060:	00c567b3          	or	a5,a0,a2
    80002064:	00813023          	sd	s0,0(sp)
    80002068:	00113423          	sd	ra,8(sp)
    8000206c:	0077f793          	and	a5,a5,7
    80002070:	00050413          	mv	s0,a0
    80002074:	00c50733          	add	a4,a0,a2
    80002078:	02078263          	beqz	a5,8000209c <memset+0x40>
    8000207c:	00e57663          	bgeu	a0,a4,80002088 <memset+0x2c>
    80002080:	0ff5f593          	zext.b	a1,a1
    80002084:	fd9ff0ef          	jal	8000205c <memset>
    80002088:	00813083          	ld	ra,8(sp)
    8000208c:	00040513          	mv	a0,s0
    80002090:	00013403          	ld	s0,0(sp)
    80002094:	01010113          	add	sp,sp,16
    80002098:	00008067          	ret
    8000209c:	0ff5f593          	zext.b	a1,a1
    800020a0:	00001797          	auipc	a5,0x1
    800020a4:	f507b783          	ld	a5,-176(a5) # 80002ff0 <pass+0xc>
    800020a8:	02f585b3          	mul	a1,a1,a5
    800020ac:	fce57ee3          	bgeu	a0,a4,80002088 <memset+0x2c>
    800020b0:	00050793          	mv	a5,a0
    800020b4:	00878793          	add	a5,a5,8
    800020b8:	feb7bc23          	sd	a1,-8(a5)
    800020bc:	fee7ece3          	bltu	a5,a4,800020b4 <memset+0x58>
    800020c0:	00813083          	ld	ra,8(sp)
    800020c4:	00040513          	mv	a0,s0
    800020c8:	00013403          	ld	s0,0(sp)
    800020cc:	01010113          	add	sp,sp,16
    800020d0:	00008067          	ret

00000000800020d4 <strlen>:
    800020d4:	00054783          	lbu	a5,0(a0)
    800020d8:	00078e63          	beqz	a5,800020f4 <strlen+0x20>
    800020dc:	00050793          	mv	a5,a0
    800020e0:	0017c703          	lbu	a4,1(a5)
    800020e4:	00178793          	add	a5,a5,1
    800020e8:	fe071ce3          	bnez	a4,800020e0 <strlen+0xc>
    800020ec:	40a78533          	sub	a0,a5,a0
    800020f0:	00008067          	ret
    800020f4:	00000513          	li	a0,0
    800020f8:	00008067          	ret

00000000800020fc <strcmp>:
    800020fc:	00054783          	lbu	a5,0(a0)
    80002100:	00158593          	add	a1,a1,1
    80002104:	00150513          	add	a0,a0,1
    80002108:	fff5c703          	lbu	a4,-1(a1)
    8000210c:	00078a63          	beqz	a5,80002120 <strcmp+0x24>
    80002110:	fee786e3          	beq	a5,a4,800020fc <strcmp>
    80002114:	0007851b          	sext.w	a0,a5
    80002118:	40e5053b          	subw	a0,a0,a4
    8000211c:	00008067          	ret
    80002120:	00000513          	li	a0,0
    80002124:	ff5ff06f          	j	80002118 <strcmp+0x1c>

0000000080002128 <memcmp>:
    80002128:	00b567b3          	or	a5,a0,a1
    8000212c:	0077f793          	and	a5,a5,7
    80002130:	02079e63          	bnez	a5,8000216c <memcmp+0x44>
    80002134:	ff867813          	and	a6,a2,-8
    80002138:	01050833          	add	a6,a0,a6
    8000213c:	03057863          	bgeu	a0,a6,8000216c <memcmp+0x44>
    80002140:	00050793          	mv	a5,a0
    80002144:	0100006f          	j	80002154 <memcmp+0x2c>
    80002148:	00878793          	add	a5,a5,8
    8000214c:	00858593          	add	a1,a1,8
    80002150:	0107f863          	bgeu	a5,a6,80002160 <memcmp+0x38>
    80002154:	0007b683          	ld	a3,0(a5)
    80002158:	0005b703          	ld	a4,0(a1)
    8000215c:	fee686e3          	beq	a3,a4,80002148 <memcmp+0x20>
    80002160:	40a78533          	sub	a0,a5,a0
    80002164:	40a60633          	sub	a2,a2,a0
    80002168:	00078513          	mv	a0,a5
    8000216c:	00c58633          	add	a2,a1,a2
    80002170:	0140006f          	j	80002184 <memcmp+0x5c>
    80002174:	0005c703          	lbu	a4,0(a1)
    80002178:	fff54783          	lbu	a5,-1(a0)
    8000217c:	00158593          	add	a1,a1,1
    80002180:	00e79a63          	bne	a5,a4,80002194 <memcmp+0x6c>
    80002184:	00150513          	add	a0,a0,1
    80002188:	fec596e3          	bne	a1,a2,80002174 <memcmp+0x4c>
    8000218c:	00000513          	li	a0,0
    80002190:	00008067          	ret
    80002194:	40e7853b          	subw	a0,a5,a4
    80002198:	00008067          	ret

000000008000219c <strcpy>:
    8000219c:	00050793          	mv	a5,a0
    800021a0:	0005c703          	lbu	a4,0(a1)
    800021a4:	00178793          	add	a5,a5,1
    800021a8:	00158593          	add	a1,a1,1
    800021ac:	fee78fa3          	sb	a4,-1(a5)
    800021b0:	fe0718e3          	bnez	a4,800021a0 <strcpy+0x4>
    800021b4:	00008067          	ret

00000000800021b8 <atol>:
    800021b8:	00054703          	lbu	a4,0(a0)
    800021bc:	02000693          	li	a3,32
    800021c0:	00050793          	mv	a5,a0
    800021c4:	00d71863          	bne	a4,a3,800021d4 <atol+0x1c>
    800021c8:	0017c703          	lbu	a4,1(a5)
    800021cc:	00178793          	add	a5,a5,1
    800021d0:	fed70ce3          	beq	a4,a3,800021c8 <atol+0x10>
    800021d4:	02d00693          	li	a3,45
    800021d8:	06d70063          	beq	a4,a3,80002238 <atol+0x80>
    800021dc:	02b00693          	li	a3,43
    800021e0:	04d70063          	beq	a4,a3,80002220 <atol+0x68>
    800021e4:	0007c683          	lbu	a3,0(a5)
    800021e8:	00000593          	li	a1,0
    800021ec:	04068263          	beqz	a3,80002230 <atol+0x78>
    800021f0:	00000513          	li	a0,0
    800021f4:	00178793          	add	a5,a5,1
    800021f8:	00251713          	sll	a4,a0,0x2
    800021fc:	fd06861b          	addw	a2,a3,-48
    80002200:	0007c683          	lbu	a3,0(a5)
    80002204:	00a70733          	add	a4,a4,a0
    80002208:	00171713          	sll	a4,a4,0x1
    8000220c:	00e60533          	add	a0,a2,a4
    80002210:	fe0692e3          	bnez	a3,800021f4 <atol+0x3c>
    80002214:	02058063          	beqz	a1,80002234 <atol+0x7c>
    80002218:	40a00533          	neg	a0,a0
    8000221c:	00008067          	ret
    80002220:	0017c683          	lbu	a3,1(a5)
    80002224:	00000593          	li	a1,0
    80002228:	00178793          	add	a5,a5,1
    8000222c:	fc0692e3          	bnez	a3,800021f0 <atol+0x38>
    80002230:	00000513          	li	a0,0
    80002234:	00008067          	ret
    80002238:	0017c683          	lbu	a3,1(a5)
    8000223c:	00100593          	li	a1,1
    80002240:	00178793          	add	a5,a5,1
    80002244:	fa0696e3          	bnez	a3,800021f0 <atol+0x38>
    80002248:	00000513          	li	a0,0
    8000224c:	fe9ff06f          	j	80002234 <atol+0x7c>

0000000080002250 <cputstring>:
    80002250:	00054783          	lbu	a5,0(a0)
    80002254:	04078063          	beqz	a5,80002294 <cputstring+0x44>
    80002258:	10100593          	li	a1,257
    8000225c:	fffff717          	auipc	a4,0xfffff
    80002260:	da470713          	add	a4,a4,-604 # 80001000 <tohost>
    80002264:	03059593          	sll	a1,a1,0x30
    80002268:	00073603          	ld	a2,0(a4)
    8000226c:	00150513          	add	a0,a0,1
    80002270:	00b7e6b3          	or	a3,a5,a1
    80002274:	00060a63          	beqz	a2,80002288 <cputstring+0x38>
    80002278:	fffff797          	auipc	a5,0xfffff
    8000227c:	dc07b423          	sd	zero,-568(a5) # 80001040 <fromhost>
    80002280:	00073783          	ld	a5,0(a4)
    80002284:	fe079ae3          	bnez	a5,80002278 <cputstring+0x28>
    80002288:	00d73023          	sd	a3,0(a4)
    8000228c:	00054783          	lbu	a5,0(a0)
    80002290:	fc079ce3          	bnez	a5,80002268 <cputstring+0x18>
    80002294:	00008067          	ret

0000000080002298 <terminate>:
    80002298:	fffff717          	auipc	a4,0xfffff
    8000229c:	d6870713          	add	a4,a4,-664 # 80001000 <tohost>
    800022a0:	00073783          	ld	a5,0(a4)
    800022a4:	00078a63          	beqz	a5,800022b8 <terminate+0x20>
    800022a8:	fffff797          	auipc	a5,0xfffff
    800022ac:	d807bc23          	sd	zero,-616(a5) # 80001040 <fromhost>
    800022b0:	00073783          	ld	a5,0(a4)
    800022b4:	fe079ae3          	bnez	a5,800022a8 <terminate+0x10>
    800022b8:	00a73023          	sd	a0,0(a4)
    800022bc:	0000006f          	j	800022bc <terminate+0x24>

00000000800022c0 <wtf>:
    800022c0:	ff010113          	add	sp,sp,-16
    800022c4:	34900513          	li	a0,841
    800022c8:	00113423          	sd	ra,8(sp)
    800022cc:	fcdff0ef          	jal	80002298 <terminate>

00000000800022d0 <printhex>:
    800022d0:	fe010113          	add	sp,sp,-32
    800022d4:	00810613          	add	a2,sp,8
    800022d8:	01710793          	add	a5,sp,23
    800022dc:	00900813          	li	a6,9
    800022e0:	0080006f          	j	800022e8 <printhex+0x18>
    800022e4:	00070793          	mv	a5,a4
    800022e8:	00f57693          	and	a3,a0,15
    800022ec:	00068713          	mv	a4,a3
    800022f0:	03000593          	li	a1,48
    800022f4:	00d87463          	bgeu	a6,a3,800022fc <printhex+0x2c>
    800022f8:	05700593          	li	a1,87
    800022fc:	00b7073b          	addw	a4,a4,a1
    80002300:	00e78023          	sb	a4,0(a5)
    80002304:	00455513          	srl	a0,a0,0x4
    80002308:	fff78713          	add	a4,a5,-1
    8000230c:	fcf61ce3          	bne	a2,a5,800022e4 <printhex+0x14>
    80002310:	00814783          	lbu	a5,8(sp)
    80002314:	00010c23          	sb	zero,24(sp)
    80002318:	04078263          	beqz	a5,8000235c <printhex+0x8c>
    8000231c:	10100513          	li	a0,257
    80002320:	00060693          	mv	a3,a2
    80002324:	fffff717          	auipc	a4,0xfffff
    80002328:	cdc70713          	add	a4,a4,-804 # 80001000 <tohost>
    8000232c:	03051513          	sll	a0,a0,0x30
    80002330:	00073583          	ld	a1,0(a4)
    80002334:	00168693          	add	a3,a3,1
    80002338:	00a7e633          	or	a2,a5,a0
    8000233c:	00058a63          	beqz	a1,80002350 <printhex+0x80>
    80002340:	fffff797          	auipc	a5,0xfffff
    80002344:	d007b023          	sd	zero,-768(a5) # 80001040 <fromhost>
    80002348:	00073783          	ld	a5,0(a4)
    8000234c:	fe079ae3          	bnez	a5,80002340 <printhex+0x70>
    80002350:	0006c783          	lbu	a5,0(a3)
    80002354:	00c73023          	sd	a2,0(a4)
    80002358:	fc079ce3          	bnez	a5,80002330 <printhex+0x60>
    8000235c:	02010113          	add	sp,sp,32
    80002360:	00008067          	ret

0000000080002364 <handle_fault>:
    80002364:	fb010113          	add	sp,sp,-80
    80002368:	00100793          	li	a5,1
    8000236c:	fffff737          	lui	a4,0xfffff
    80002370:	00f12223          	sw	a5,4(sp)
    80002374:	04113423          	sd	ra,72(sp)
    80002378:	04813023          	sd	s0,64(sp)
    8000237c:	02913c23          	sd	s1,56(sp)
    80002380:	03213823          	sd	s2,48(sp)
    80002384:	03313423          	sd	s3,40(sp)
    80002388:	03413023          	sd	s4,32(sp)
    8000238c:	01513c23          	sd	s5,24(sp)
    80002390:	00013423          	sd	zero,8(sp)
    80002394:	00e506b3          	add	a3,a0,a4
    80002398:	0003e7b7          	lui	a5,0x3e
    8000239c:	18f6f663          	bgeu	a3,a5,80002528 <handle_fault+0x1c4>
    800023a0:	00c55993          	srl	s3,a0,0xc
    800023a4:	60098493          	add	s1,s3,1536
    800023a8:	00003917          	auipc	s2,0x3
    800023ac:	c5890913          	add	s2,s2,-936 # 80005000 <pt>
    800023b0:	00349793          	sll	a5,s1,0x3
    800023b4:	00f907b3          	add	a5,s2,a5
    800023b8:	0007b783          	ld	a5,0(a5) # 3e000 <_start-0x7ffc2000>
    800023bc:	00e57433          	and	s0,a0,a4
    800023c0:	10079663          	bnez	a5,800024cc <handle_fault+0x168>
    800023c4:	00007717          	auipc	a4,0x7
    800023c8:	c4470713          	add	a4,a4,-956 # 80009008 <freelist_head>
    800023cc:	00073a03          	ld	s4,0(a4)
    800023d0:	180a0063          	beqz	s4,80002550 <handle_fault+0x1ec>
    800023d4:	008a3783          	ld	a5,8(s4)
    800023d8:	00007697          	auipc	a3,0x7
    800023dc:	c286b683          	ld	a3,-984(a3) # 80009000 <freelist_tail>
    800023e0:	00f73023          	sd	a5,0(a4)
    800023e4:	12d78c63          	beq	a5,a3,8000251c <handle_fault+0x1b8>
    800023e8:	00410613          	add	a2,sp,4
    800023ec:	00810593          	add	a1,sp,8
    800023f0:	00040513          	mv	a0,s0
    800023f4:	000a3a83          	ld	s5,0(s4)
    800023f8:	60c000ef          	jal	80002a04 <pf_filter>
    800023fc:	10051063          	bnez	a0,800024fc <handle_fault+0x198>
    80002400:	00cad693          	srl	a3,s5,0xc
    80002404:	00a69693          	sll	a3,a3,0xa
    80002408:	01f6e693          	or	a3,a3,31
    8000240c:	00349793          	sll	a5,s1,0x3
    80002410:	00f907b3          	add	a5,s2,a5
    80002414:	0c06e713          	or	a4,a3,192
    80002418:	00e7b023          	sd	a4,0(a5)
    8000241c:	12040073          	sfence.vma	s0
    80002420:	00002797          	auipc	a5,0x2
    80002424:	be078793          	add	a5,a5,-1056 # 80004000 <user_mapping>
    80002428:	00499993          	sll	s3,s3,0x4
    8000242c:	013787b3          	add	a5,a5,s3
    80002430:	0007b703          	ld	a4,0(a5)
    80002434:	12071863          	bnez	a4,80002564 <handle_fault+0x200>
    80002438:	000a3703          	ld	a4,0(s4)
    8000243c:	000405b7          	lui	a1,0x40
    80002440:	00e7b023          	sd	a4,0(a5)
    80002444:	008a3703          	ld	a4,8(s4)
    80002448:	00e7b423          	sd	a4,8(a5)
    8000244c:	1005a5f3          	csrrs	a1,sstatus,a1
    80002450:	ffe007b7          	lui	a5,0xffe00
    80002454:	00f407b3          	add	a5,s0,a5
    80002458:	00001637          	lui	a2,0x1
    8000245c:	00040713          	mv	a4,s0
    80002460:	00c78633          	add	a2,a5,a2
    80002464:	0007b303          	ld	t1,0(a5) # ffffffffffe00000 <freelist_head+0xffffffff7fdf6ff8>
    80002468:	0087b883          	ld	a7,8(a5)
    8000246c:	0107b803          	ld	a6,16(a5)
    80002470:	0187b503          	ld	a0,24(a5)
    80002474:	00673023          	sd	t1,0(a4)
    80002478:	01173423          	sd	a7,8(a4)
    8000247c:	01073823          	sd	a6,16(a4)
    80002480:	00a73c23          	sd	a0,24(a4)
    80002484:	02078793          	add	a5,a5,32
    80002488:	02070713          	add	a4,a4,32
    8000248c:	fcc79ce3          	bne	a5,a2,80002464 <handle_fault+0x100>
    80002490:	10059073          	csrw	sstatus,a1
    80002494:	00349793          	sll	a5,s1,0x3
    80002498:	00f904b3          	add	s1,s2,a5
    8000249c:	00d4b023          	sd	a3,0(s1)
    800024a0:	12040073          	sfence.vma	s0
    800024a4:	0000100f          	fence.i
    800024a8:	04813083          	ld	ra,72(sp)
    800024ac:	04013403          	ld	s0,64(sp)
    800024b0:	03813483          	ld	s1,56(sp)
    800024b4:	03013903          	ld	s2,48(sp)
    800024b8:	02813983          	ld	s3,40(sp)
    800024bc:	02013a03          	ld	s4,32(sp)
    800024c0:	01813a83          	ld	s5,24(sp)
    800024c4:	05010113          	add	sp,sp,80
    800024c8:	00008067          	ret
    800024cc:	0407f713          	and	a4,a5,64
    800024d0:	04070263          	beqz	a4,80002514 <handle_fault+0x1b0>
    800024d4:	0807f713          	and	a4,a5,128
    800024d8:	06071263          	bnez	a4,8000253c <handle_fault+0x1d8>
    800024dc:	00f00713          	li	a4,15
    800024e0:	0807e793          	or	a5,a5,128
    800024e4:	04e59c63          	bne	a1,a4,8000253c <handle_fault+0x1d8>
    800024e8:	00349493          	sll	s1,s1,0x3
    800024ec:	009904b3          	add	s1,s2,s1
    800024f0:	00f4b023          	sd	a5,0(s1)
    800024f4:	12040073          	sfence.vma	s0
    800024f8:	fb1ff06f          	j	800024a8 <handle_fault+0x144>
    800024fc:	000a3683          	ld	a3,0(s4)
    80002500:	00813783          	ld	a5,8(sp)
    80002504:	00c6d693          	srl	a3,a3,0xc
    80002508:	00a69693          	sll	a3,a3,0xa
    8000250c:	00f6e6b3          	or	a3,a3,a5
    80002510:	efdff06f          	j	8000240c <handle_fault+0xa8>
    80002514:	0407e793          	or	a5,a5,64
    80002518:	fd1ff06f          	j	800024e8 <handle_fault+0x184>
    8000251c:	00007797          	auipc	a5,0x7
    80002520:	ae07b223          	sd	zero,-1308(a5) # 80009000 <freelist_tail>
    80002524:	ec5ff06f          	j	800023e8 <handle_fault+0x84>
    80002528:	00001517          	auipc	a0,0x1
    8000252c:	ad050513          	add	a0,a0,-1328 # 80002ff8 <pass+0x14>
    80002530:	d21ff0ef          	jal	80002250 <cputstring>
    80002534:	00300513          	li	a0,3
    80002538:	d61ff0ef          	jal	80002298 <terminate>
    8000253c:	00001517          	auipc	a0,0x1
    80002540:	b0450513          	add	a0,a0,-1276 # 80003040 <pass+0x5c>
    80002544:	d0dff0ef          	jal	80002250 <cputstring>
    80002548:	00300513          	li	a0,3
    8000254c:	d4dff0ef          	jal	80002298 <terminate>
    80002550:	00001517          	auipc	a0,0x1
    80002554:	b3850513          	add	a0,a0,-1224 # 80003088 <pass+0xa4>
    80002558:	cf9ff0ef          	jal	80002250 <cputstring>
    8000255c:	00300513          	li	a0,3
    80002560:	d39ff0ef          	jal	80002298 <terminate>
    80002564:	00001517          	auipc	a0,0x1
    80002568:	b3c50513          	add	a0,a0,-1220 # 800030a0 <pass+0xbc>
    8000256c:	ce5ff0ef          	jal	80002250 <cputstring>
    80002570:	00300513          	li	a0,3
    80002574:	d25ff0ef          	jal	80002298 <terminate>

0000000080002578 <handle_trap>:
    80002578:	f8010113          	add	sp,sp,-128
    8000257c:	06813823          	sd	s0,112(sp)
    80002580:	06113c23          	sd	ra,120(sp)
    80002584:	06913423          	sd	s1,104(sp)
    80002588:	07213023          	sd	s2,96(sp)
    8000258c:	05313c23          	sd	s3,88(sp)
    80002590:	05413823          	sd	s4,80(sp)
    80002594:	05513423          	sd	s5,72(sp)
    80002598:	05613023          	sd	s6,64(sp)
    8000259c:	03713c23          	sd	s7,56(sp)
    800025a0:	03813823          	sd	s8,48(sp)
    800025a4:	03913423          	sd	s9,40(sp)
    800025a8:	03a13023          	sd	s10,32(sp)
    800025ac:	01b13c23          	sd	s11,24(sp)
    800025b0:	00050413          	mv	s0,a0
    800025b4:	448000ef          	jal	800029fc <trap_filter>
    800025b8:	0e051263          	bnez	a0,8000269c <handle_trap+0x124>
    800025bc:	11843583          	ld	a1,280(s0)
    800025c0:	00800793          	li	a5,8
    800025c4:	10f58063          	beq	a1,a5,800026c4 <handle_trap+0x14c>
    800025c8:	00200793          	li	a5,2
    800025cc:	06f58063          	beq	a1,a5,8000262c <handle_trap+0xb4>
    800025d0:	ff458793          	add	a5,a1,-12 # 3fff4 <_start-0x7ffc000c>
    800025d4:	00100713          	li	a4,1
    800025d8:	00f77663          	bgeu	a4,a5,800025e4 <handle_trap+0x6c>
    800025dc:	00f00793          	li	a5,15
    800025e0:	1ef59c63          	bne	a1,a5,800027d8 <handle_trap+0x260>
    800025e4:	11043503          	ld	a0,272(s0)
    800025e8:	d7dff0ef          	jal	80002364 <handle_fault>
    800025ec:	00040513          	mv	a0,s0
    800025f0:	07013403          	ld	s0,112(sp)
    800025f4:	07813083          	ld	ra,120(sp)
    800025f8:	06813483          	ld	s1,104(sp)
    800025fc:	06013903          	ld	s2,96(sp)
    80002600:	05813983          	ld	s3,88(sp)
    80002604:	05013a03          	ld	s4,80(sp)
    80002608:	04813a83          	ld	s5,72(sp)
    8000260c:	04013b03          	ld	s6,64(sp)
    80002610:	03813b83          	ld	s7,56(sp)
    80002614:	03013c03          	ld	s8,48(sp)
    80002618:	02813c83          	ld	s9,40(sp)
    8000261c:	02013d03          	ld	s10,32(sp)
    80002620:	01813d83          	ld	s11,24(sp)
    80002624:	08010113          	add	sp,sp,128
    80002628:	aa5fd06f          	j	800000cc <pop_tf>
    8000262c:	10843703          	ld	a4,264(s0)
    80002630:	00377793          	and	a5,a4,3
    80002634:	06079e63          	bnez	a5,800026b0 <handle_trap+0x138>
    80002638:	008007ef          	jal	a5,80002640 <handle_trap+0xc8>
    8000263c:	00301073          	fscsr	zero
    80002640:	00072703          	lw	a4,0(a4)
    80002644:	0007a783          	lw	a5,0(a5)
    80002648:	06f70063          	beq	a4,a5,800026a8 <handle_trap+0x130>
    8000264c:	10100513          	li	a0,257
    80002650:	04100793          	li	a5,65
    80002654:	00001697          	auipc	a3,0x1
    80002658:	a8c68693          	add	a3,a3,-1396 # 800030e0 <pass+0xfc>
    8000265c:	fffff717          	auipc	a4,0xfffff
    80002660:	9a470713          	add	a4,a4,-1628 # 80001000 <tohost>
    80002664:	03051513          	sll	a0,a0,0x30
    80002668:	00073583          	ld	a1,0(a4)
    8000266c:	00168693          	add	a3,a3,1
    80002670:	00a7e633          	or	a2,a5,a0
    80002674:	00058a63          	beqz	a1,80002688 <handle_trap+0x110>
    80002678:	fffff797          	auipc	a5,0xfffff
    8000267c:	9c07b423          	sd	zero,-1592(a5) # 80001040 <fromhost>
    80002680:	00073783          	ld	a5,0(a4)
    80002684:	fe079ae3          	bnez	a5,80002678 <handle_trap+0x100>
    80002688:	0006c783          	lbu	a5,0(a3)
    8000268c:	00c73023          	sd	a2,0(a4)
    80002690:	fc079ce3          	bnez	a5,80002668 <handle_trap+0xf0>
    80002694:	00300513          	li	a0,3
    80002698:	c01ff0ef          	jal	80002298 <terminate>
    8000269c:	00040513          	mv	a0,s0
    800026a0:	a2dfd0ef          	jal	800000cc <pop_tf>
    800026a4:	f19ff06f          	j	800025bc <handle_trap+0x44>
    800026a8:	00100513          	li	a0,1
    800026ac:	bedff0ef          	jal	80002298 <terminate>
    800026b0:	00001517          	auipc	a0,0x1
    800026b4:	ad050513          	add	a0,a0,-1328 # 80003180 <pass+0x19c>
    800026b8:	b99ff0ef          	jal	80002250 <cputstring>
    800026bc:	00300513          	li	a0,3
    800026c0:	bd9ff0ef          	jal	80002298 <terminate>
    800026c4:	05042783          	lw	a5,80(s0)
    800026c8:	000014b7          	lui	s1,0x1
    800026cc:	00002a97          	auipc	s5,0x2
    800026d0:	934a8a93          	add	s5,s5,-1740 # 80004000 <user_mapping>
    800026d4:	00f13423          	sd	a5,8(sp)
    800026d8:	00003d17          	auipc	s10,0x3
    800026dc:	928d0d13          	add	s10,s10,-1752 # 80005000 <pt>
    800026e0:	00040cb7          	lui	s9,0x40
    800026e4:	ffe00c37          	lui	s8,0xffe00
    800026e8:	00007a17          	auipc	s4,0x7
    800026ec:	918a0a13          	add	s4,s4,-1768 # 80009000 <freelist_tail>
    800026f0:	00007b97          	auipc	s7,0x7
    800026f4:	918b8b93          	add	s7,s7,-1768 # 80009008 <freelist_head>
    800026f8:	0003fb37          	lui	s6,0x3f
    800026fc:	00c4d793          	srl	a5,s1,0xc
    80002700:	00479913          	sll	s2,a5,0x4
    80002704:	012a8733          	add	a4,s5,s2
    80002708:	00073703          	ld	a4,0(a4)
    8000270c:	08070c63          	beqz	a4,800027a4 <handle_trap+0x22c>
    80002710:	60078793          	add	a5,a5,1536
    80002714:	00379793          	sll	a5,a5,0x3
    80002718:	00fd07b3          	add	a5,s10,a5
    8000271c:	0007b983          	ld	s3,0(a5)
    80002720:	0409f793          	and	a5,s3,64
    80002724:	0a078063          	beqz	a5,800027c4 <handle_trap+0x24c>
    80002728:	100cadf3          	csrrs	s11,sstatus,s9
    8000272c:	01848433          	add	s0,s1,s8
    80002730:	00001637          	lui	a2,0x1
    80002734:	00040593          	mv	a1,s0
    80002738:	00048513          	mv	a0,s1
    8000273c:	9edff0ef          	jal	80002128 <memcmp>
    80002740:	04050463          	beqz	a0,80002788 <handle_trap+0x210>
    80002744:	0809f993          	and	s3,s3,128
    80002748:	0a098063          	beqz	s3,800027e8 <handle_trap+0x270>
    8000274c:	000016b7          	lui	a3,0x1
    80002750:	00048713          	mv	a4,s1
    80002754:	00040793          	mv	a5,s0
    80002758:	00d486b3          	add	a3,s1,a3
    8000275c:	00073803          	ld	a6,0(a4)
    80002760:	00873503          	ld	a0,8(a4)
    80002764:	01073583          	ld	a1,16(a4)
    80002768:	01873603          	ld	a2,24(a4)
    8000276c:	0107b023          	sd	a6,0(a5)
    80002770:	00a7b423          	sd	a0,8(a5)
    80002774:	00b7b823          	sd	a1,16(a5)
    80002778:	00c7bc23          	sd	a2,24(a5)
    8000277c:	02070713          	add	a4,a4,32
    80002780:	02078793          	add	a5,a5,32
    80002784:	fcd71ce3          	bne	a4,a3,8000275c <handle_trap+0x1e4>
    80002788:	012a87b3          	add	a5,s5,s2
    8000278c:	100d9073          	csrw	sstatus,s11
    80002790:	000a3703          	ld	a4,0(s4)
    80002794:	0007b023          	sd	zero,0(a5)
    80002798:	02070063          	beqz	a4,800027b8 <handle_trap+0x240>
    8000279c:	00f73423          	sd	a5,8(a4)
    800027a0:	00fa3023          	sd	a5,0(s4)
    800027a4:	000017b7          	lui	a5,0x1
    800027a8:	00f484b3          	add	s1,s1,a5
    800027ac:	f56498e3          	bne	s1,s6,800026fc <handle_trap+0x184>
    800027b0:	00813503          	ld	a0,8(sp)
    800027b4:	ae5ff0ef          	jal	80002298 <terminate>
    800027b8:	00fa3023          	sd	a5,0(s4)
    800027bc:	00fbb023          	sd	a5,0(s7)
    800027c0:	fe5ff06f          	j	800027a4 <handle_trap+0x22c>
    800027c4:	00001517          	auipc	a0,0x1
    800027c8:	94c50513          	add	a0,a0,-1716 # 80003110 <pass+0x12c>
    800027cc:	a85ff0ef          	jal	80002250 <cputstring>
    800027d0:	00300513          	li	a0,3
    800027d4:	ac5ff0ef          	jal	80002298 <terminate>
    800027d8:	00001517          	auipc	a0,0x1
    800027dc:	9d050513          	add	a0,a0,-1584 # 800031a8 <pass+0x1c4>
    800027e0:	a71ff0ef          	jal	80002250 <cputstring>
    800027e4:	eb1ff06f          	j	80002694 <handle_trap+0x11c>
    800027e8:	00001517          	auipc	a0,0x1
    800027ec:	96050513          	add	a0,a0,-1696 # 80003148 <pass+0x164>
    800027f0:	a61ff0ef          	jal	80002250 <cputstring>
    800027f4:	00300513          	li	a0,3
    800027f8:	aa1ff0ef          	jal	80002298 <terminate>

00000000800027fc <vm_boot>:
    800027fc:	f14027f3          	csrr	a5,mhartid
    80002800:	18079a63          	bnez	a5,80002994 <vm_boot+0x198>
    80002804:	00004797          	auipc	a5,0x4
    80002808:	7fc78793          	add	a5,a5,2044 # 80007000 <pt+0x2000>
    8000280c:	ed010113          	add	sp,sp,-304
    80002810:	00c7d793          	srl	a5,a5,0xc
    80002814:	12813023          	sd	s0,288(sp)
    80002818:	00005817          	auipc	a6,0x5
    8000281c:	7e880813          	add	a6,a6,2024 # 80008000 <pt+0x3000>
    80002820:	00050413          	mv	s0,a0
    80002824:	00a79793          	sll	a5,a5,0xa
    80002828:	00003517          	auipc	a0,0x3
    8000282c:	7d850513          	add	a0,a0,2008 # 80006000 <pt+0x1000>
    80002830:	12113423          	sd	ra,296(sp)
    80002834:	00c55693          	srl	a3,a0,0xc
    80002838:	00c85713          	srl	a4,a6,0xc
    8000283c:	0017e793          	or	a5,a5,1
    80002840:	00002897          	auipc	a7,0x2
    80002844:	7c088893          	add	a7,a7,1984 # 80005000 <pt>
    80002848:	fff00613          	li	a2,-1
    8000284c:	fef53c23          	sd	a5,-8(a0)
    80002850:	00a69693          	sll	a3,a3,0xa
    80002854:	00a71713          	sll	a4,a4,0xa
    80002858:	200007b7          	lui	a5,0x20000
    8000285c:	0016e693          	or	a3,a3,1
    80002860:	00176713          	or	a4,a4,1
    80002864:	00c8d593          	srl	a1,a7,0xc
    80002868:	03f61313          	sll	t1,a2,0x3f
    8000286c:	0cf78793          	add	a5,a5,207 # 200000cf <_start-0x5fffff31>
    80002870:	fef83c23          	sd	a5,-8(a6)
    80002874:	00d8b023          	sd	a3,0(a7)
    80002878:	00e53023          	sd	a4,0(a0)
    8000287c:	0065e7b3          	or	a5,a1,t1
    80002880:	18079073          	csrw	satp,a5
    80002884:	18002773          	csrr	a4,satp
    80002888:	14e79e63          	bne	a5,a4,800029e4 <vm_boot+0x1e8>
    8000288c:	00b65613          	srl	a2,a2,0xb
    80002890:	01f00793          	li	a5,31
    80002894:	00000297          	auipc	t0,0x0
    80002898:	01428293          	add	t0,t0,20 # 800028a8 <vm_boot+0xac>
    8000289c:	305292f3          	csrrw	t0,mtvec,t0
    800028a0:	3b061073          	csrw	pmpaddr0,a2
    800028a4:	3a079073          	csrw	pmpcfg0,a5
    800028a8:	30529073          	csrw	mtvec,t0
    800028ac:	bff00813          	li	a6,-1025
    800028b0:	01581813          	sll	a6,a6,0x15
    800028b4:	ffffe797          	auipc	a5,0xffffe
    800028b8:	8a078793          	add	a5,a5,-1888 # 80000154 <trap_entry>
    800028bc:	010787b3          	add	a5,a5,a6
    800028c0:	10579073          	csrw	stvec,a5
    800028c4:	340027f3          	csrr	a5,mscratch
    800028c8:	010787b3          	add	a5,a5,a6
    800028cc:	14079073          	csrw	sscratch,a5
    800028d0:	0000b7b7          	lui	a5,0xb
    800028d4:	1007879b          	addw	a5,a5,256 # b100 <_start-0x7fff4f00>
    800028d8:	30279073          	csrw	medeleg,a5
    800028dc:	0001e7b7          	lui	a5,0x1e
    800028e0:	6007879b          	addw	a5,a5,1536 # 1e600 <_start-0x7ffe1a00>
    800028e4:	30079073          	csrw	mstatus,a5
    800028e8:	30405073          	csrw	mie,0
    800028ec:	00002717          	auipc	a4,0x2
    800028f0:	b0470713          	add	a4,a4,-1276 # 800043f0 <freelist_nodes>
    800028f4:	3e080793          	add	a5,a6,992
    800028f8:	010706b3          	add	a3,a4,a6
    800028fc:	00f707b3          	add	a5,a4,a5
    80002900:	000808b7          	lui	a7,0x80
    80002904:	00006617          	auipc	a2,0x6
    80002908:	70d63223          	sd	a3,1796(a2) # 80009008 <freelist_head>
    8000290c:	00002317          	auipc	t1,0x2
    80002910:	ed430313          	add	t1,t1,-300 # 800047e0 <freelist_nodes+0x3f0>
    80002914:	00006697          	auipc	a3,0x6
    80002918:	6ef6b623          	sd	a5,1772(a3) # 80009000 <freelist_tail>
    8000291c:	03f88893          	add	a7,a7,63 # 8003f <_start-0x7ff7ffc1>
    80002920:	02900793          	li	a5,41
    80002924:	01080813          	add	a6,a6,16
    80002928:	0017d613          	srl	a2,a5,0x1
    8000292c:	011786b3          	add	a3,a5,a7
    80002930:	00f647b3          	xor	a5,a2,a5
    80002934:	010705b3          	add	a1,a4,a6
    80002938:	00c69693          	sll	a3,a3,0xc
    8000293c:	00579793          	sll	a5,a5,0x5
    80002940:	00d73023          	sd	a3,0(a4)
    80002944:	00b73423          	sd	a1,8(a4)
    80002948:	0207f793          	and	a5,a5,32
    8000294c:	01070713          	add	a4,a4,16
    80002950:	00f667b3          	or	a5,a2,a5
    80002954:	fce31ae3          	bne	t1,a4,80002928 <vm_boot+0x12c>
    80002958:	12000613          	li	a2,288
    8000295c:	00000593          	li	a1,0
    80002960:	00010513          	mv	a0,sp
    80002964:	00002797          	auipc	a5,0x2
    80002968:	e607ba23          	sd	zero,-396(a5) # 800047d8 <freelist_nodes+0x3e8>
    8000296c:	ef0ff0ef          	jal	8000205c <memset>
    80002970:	800007b7          	lui	a5,0x80000
    80002974:	00f40433          	add	s0,s0,a5
    80002978:	00010513          	mv	a0,sp
    8000297c:	10813423          	sd	s0,264(sp)
    80002980:	f4cfd0ef          	jal	800000cc <pop_tf>
    80002984:	12813083          	ld	ra,296(sp)
    80002988:	12013403          	ld	s0,288(sp)
    8000298c:	13010113          	add	sp,sp,304
    80002990:	00008067          	ret
    80002994:	00100713          	li	a4,1
    80002998:	0c2b87b7          	lui	a5,0xc2b8
    8000299c:	00080637          	lui	a2,0x80
    800029a0:	9f278793          	add	a5,a5,-1550 # c2b79f2 <_start-0x73d4860e>
    800029a4:	ffc60613          	add	a2,a2,-4 # 7fffc <_start-0x7ff80004>
    800029a8:	01f71513          	sll	a0,a4,0x1f
    800029ac:	03e71693          	sll	a3,a4,0x3e
    800029b0:	01c0006f          	j	800029cc <vm_boot+0x1d0>
    800029b4:	0007202f          	amoadd.w	zero,zero,(a4)
    800029b8:	0017d713          	srl	a4,a5,0x1
    800029bc:	00e7c7b3          	xor	a5,a5,a4
    800029c0:	03e79793          	sll	a5,a5,0x3e
    800029c4:	00d7f7b3          	and	a5,a5,a3
    800029c8:	00e7e7b3          	or	a5,a5,a4
    800029cc:	00c7f733          	and	a4,a5,a2
    800029d0:	0017f593          	and	a1,a5,1
    800029d4:	00a70733          	add	a4,a4,a0
    800029d8:	fc059ee3          	bnez	a1,800029b4 <vm_boot+0x1b8>
    800029dc:	00072003          	lw	zero,0(a4)
    800029e0:	fd9ff06f          	j	800029b8 <vm_boot+0x1bc>
    800029e4:	00000517          	auipc	a0,0x0
    800029e8:	7f450513          	add	a0,a0,2036 # 800031d8 <pass+0x1f4>
    800029ec:	865ff0ef          	jal	80002250 <cputstring>
    800029f0:	00300513          	li	a0,3
    800029f4:	8a5ff0ef          	jal	80002298 <terminate>

00000000800029f8 <extra_boot>:
    800029f8:	00008067          	ret

00000000800029fc <trap_filter>:
    800029fc:	00000513          	li	a0,0
    80002a00:	00008067          	ret

0000000080002a04 <pf_filter>:
    80002a04:	00000513          	li	a0,0
    80002a08:	00008067          	ret

0000000080002a0c <userstart>:
    80002a0c:	00200193          	li	gp,2
    80002a10:	000100b7          	lui	ra,0x10
    80002a14:	f010809b          	addw	ra,ra,-255 # ff01 <_start-0x7fff00ff>
    80002a18:	01009093          	sll	ra,ra,0x10
    80002a1c:	f0008093          	add	ra,ra,-256
    80002a20:	0f0f1137          	lui	sp,0xf0f1
    80002a24:	f0f1011b          	addw	sp,sp,-241 # f0f0f0f <_start-0x70f0f0f1>
    80002a28:	0020c733          	xor	a4,ra,sp
    80002a2c:	000f03b7          	lui	t2,0xf0
    80002a30:	0ff3839b          	addw	t2,t2,255 # f00ff <_start-0x7ff0ff01>
    80002a34:	00c39393          	sll	t2,t2,0xc
    80002a38:	00f38393          	add	t2,t2,15
    80002a3c:	58771c63          	bne	a4,t2,80002fd4 <fail>

0000000080002a40 <test_3>:
    80002a40:	00300193          	li	gp,3
    80002a44:	0ff010b7          	lui	ra,0xff01
    80002a48:	ff00809b          	addw	ra,ra,-16 # ff00ff0 <_start-0x700ff010>
    80002a4c:	000f1137          	lui	sp,0xf1
    80002a50:	f0f1011b          	addw	sp,sp,-241 # f0f0f <_start-0x7ff0f0f1>
    80002a54:	00c11113          	sll	sp,sp,0xc
    80002a58:	0f010113          	add	sp,sp,240
    80002a5c:	0020c733          	xor	a4,ra,sp
    80002a60:	000103b7          	lui	t2,0x10
    80002a64:	f013839b          	addw	t2,t2,-255 # ff01 <_start-0x7fff00ff>
    80002a68:	01039393          	sll	t2,t2,0x10
    80002a6c:	f0038393          	add	t2,t2,-256
    80002a70:	56771263          	bne	a4,t2,80002fd4 <fail>

0000000080002a74 <test_4>:
    80002a74:	00400193          	li	gp,4
    80002a78:	00ff00b7          	lui	ra,0xff0
    80002a7c:	0ff0809b          	addw	ra,ra,255 # ff00ff <_start-0x7f00ff01>
    80002a80:	0f0f1137          	lui	sp,0xf0f1
    80002a84:	f0f1011b          	addw	sp,sp,-241 # f0f0f0f <_start-0x70f0f0f1>
    80002a88:	0020c733          	xor	a4,ra,sp
    80002a8c:	0ff013b7          	lui	t2,0xff01
    80002a90:	ff03839b          	addw	t2,t2,-16 # ff00ff0 <_start-0x700ff010>
    80002a94:	54771063          	bne	a4,t2,80002fd4 <fail>

0000000080002a98 <test_5>:
    80002a98:	00500193          	li	gp,5
    80002a9c:	000f00b7          	lui	ra,0xf0
    80002aa0:	0ff0809b          	addw	ra,ra,255 # f00ff <_start-0x7ff0ff01>
    80002aa4:	00c09093          	sll	ra,ra,0xc
    80002aa8:	00f08093          	add	ra,ra,15
    80002aac:	000f1137          	lui	sp,0xf1
    80002ab0:	f0f1011b          	addw	sp,sp,-241 # f0f0f <_start-0x7ff0f0f1>
    80002ab4:	00c11113          	sll	sp,sp,0xc
    80002ab8:	0f010113          	add	sp,sp,240
    80002abc:	0020c733          	xor	a4,ra,sp
    80002ac0:	00ff03b7          	lui	t2,0xff0
    80002ac4:	0ff3839b          	addw	t2,t2,255 # ff00ff <_start-0x7f00ff01>
    80002ac8:	50771663          	bne	a4,t2,80002fd4 <fail>

0000000080002acc <test_6>:
    80002acc:	00600193          	li	gp,6
    80002ad0:	000100b7          	lui	ra,0x10
    80002ad4:	f010809b          	addw	ra,ra,-255 # ff01 <_start-0x7fff00ff>
    80002ad8:	01009093          	sll	ra,ra,0x10
    80002adc:	f0008093          	add	ra,ra,-256
    80002ae0:	0f0f1137          	lui	sp,0xf0f1
    80002ae4:	f0f1011b          	addw	sp,sp,-241 # f0f0f0f <_start-0x70f0f0f1>
    80002ae8:	0020c0b3          	xor	ra,ra,sp
    80002aec:	000f03b7          	lui	t2,0xf0
    80002af0:	0ff3839b          	addw	t2,t2,255 # f00ff <_start-0x7ff0ff01>
    80002af4:	00c39393          	sll	t2,t2,0xc
    80002af8:	00f38393          	add	t2,t2,15
    80002afc:	4c709c63          	bne	ra,t2,80002fd4 <fail>

0000000080002b00 <test_7>:
    80002b00:	00700193          	li	gp,7
    80002b04:	000100b7          	lui	ra,0x10
    80002b08:	f010809b          	addw	ra,ra,-255 # ff01 <_start-0x7fff00ff>
    80002b0c:	01009093          	sll	ra,ra,0x10
    80002b10:	f0008093          	add	ra,ra,-256
    80002b14:	0f0f1137          	lui	sp,0xf0f1
    80002b18:	f0f1011b          	addw	sp,sp,-241 # f0f0f0f <_start-0x70f0f0f1>
    80002b1c:	0020c133          	xor	sp,ra,sp
    80002b20:	000f03b7          	lui	t2,0xf0
    80002b24:	0ff3839b          	addw	t2,t2,255 # f00ff <_start-0x7ff0ff01>
    80002b28:	00c39393          	sll	t2,t2,0xc
    80002b2c:	00f38393          	add	t2,t2,15
    80002b30:	4a711263          	bne	sp,t2,80002fd4 <fail>

0000000080002b34 <test_8>:
    80002b34:	00800193          	li	gp,8
    80002b38:	000100b7          	lui	ra,0x10
    80002b3c:	f010809b          	addw	ra,ra,-255 # ff01 <_start-0x7fff00ff>
    80002b40:	01009093          	sll	ra,ra,0x10
    80002b44:	f0008093          	add	ra,ra,-256
    80002b48:	0010c0b3          	xor	ra,ra,ra
    80002b4c:	00000393          	li	t2,0
    80002b50:	48709263          	bne	ra,t2,80002fd4 <fail>

0000000080002b54 <test_9>:
    80002b54:	00900193          	li	gp,9
    80002b58:	00000213          	li	tp,0
    80002b5c:	000100b7          	lui	ra,0x10
    80002b60:	f010809b          	addw	ra,ra,-255 # ff01 <_start-0x7fff00ff>
    80002b64:	01009093          	sll	ra,ra,0x10
    80002b68:	f0008093          	add	ra,ra,-256
    80002b6c:	0f0f1137          	lui	sp,0xf0f1
    80002b70:	f0f1011b          	addw	sp,sp,-241 # f0f0f0f <_start-0x70f0f0f1>
    80002b74:	0020c733          	xor	a4,ra,sp
    80002b78:	00070313          	mv	t1,a4
    80002b7c:	00120213          	add	tp,tp,1 # 1 <_start-0x7fffffff>
    80002b80:	00200293          	li	t0,2
    80002b84:	fc521ce3          	bne	tp,t0,80002b5c <test_9+0x8>
    80002b88:	000f03b7          	lui	t2,0xf0
    80002b8c:	0ff3839b          	addw	t2,t2,255 # f00ff <_start-0x7ff0ff01>
    80002b90:	00c39393          	sll	t2,t2,0xc
    80002b94:	00f38393          	add	t2,t2,15
    80002b98:	42731e63          	bne	t1,t2,80002fd4 <fail>

0000000080002b9c <test_10>:
    80002b9c:	00a00193          	li	gp,10
    80002ba0:	00000213          	li	tp,0
    80002ba4:	0ff010b7          	lui	ra,0xff01
    80002ba8:	ff00809b          	addw	ra,ra,-16 # ff00ff0 <_start-0x700ff010>
    80002bac:	000f1137          	lui	sp,0xf1
    80002bb0:	f0f1011b          	addw	sp,sp,-241 # f0f0f <_start-0x7ff0f0f1>
    80002bb4:	00c11113          	sll	sp,sp,0xc
    80002bb8:	0f010113          	add	sp,sp,240
    80002bbc:	0020c733          	xor	a4,ra,sp
    80002bc0:	00000013          	nop
    80002bc4:	00070313          	mv	t1,a4
    80002bc8:	00120213          	add	tp,tp,1 # 1 <_start-0x7fffffff>
    80002bcc:	00200293          	li	t0,2
    80002bd0:	fc521ae3          	bne	tp,t0,80002ba4 <test_10+0x8>
    80002bd4:	000103b7          	lui	t2,0x10
    80002bd8:	f013839b          	addw	t2,t2,-255 # ff01 <_start-0x7fff00ff>
    80002bdc:	01039393          	sll	t2,t2,0x10
    80002be0:	f0038393          	add	t2,t2,-256
    80002be4:	3e731863          	bne	t1,t2,80002fd4 <fail>

0000000080002be8 <test_11>:
    80002be8:	00b00193          	li	gp,11
    80002bec:	00000213          	li	tp,0
    80002bf0:	00ff00b7          	lui	ra,0xff0
    80002bf4:	0ff0809b          	addw	ra,ra,255 # ff00ff <_start-0x7f00ff01>
    80002bf8:	0f0f1137          	lui	sp,0xf0f1
    80002bfc:	f0f1011b          	addw	sp,sp,-241 # f0f0f0f <_start-0x70f0f0f1>
    80002c00:	0020c733          	xor	a4,ra,sp
    80002c04:	00000013          	nop
    80002c08:	00000013          	nop
    80002c0c:	00070313          	mv	t1,a4
    80002c10:	00120213          	add	tp,tp,1 # 1 <_start-0x7fffffff>
    80002c14:	00200293          	li	t0,2
    80002c18:	fc521ce3          	bne	tp,t0,80002bf0 <test_11+0x8>
    80002c1c:	0ff013b7          	lui	t2,0xff01
    80002c20:	ff03839b          	addw	t2,t2,-16 # ff00ff0 <_start-0x700ff010>
    80002c24:	3a731863          	bne	t1,t2,80002fd4 <fail>

0000000080002c28 <test_12>:
    80002c28:	00c00193          	li	gp,12
    80002c2c:	00000213          	li	tp,0
    80002c30:	000100b7          	lui	ra,0x10
    80002c34:	f010809b          	addw	ra,ra,-255 # ff01 <_start-0x7fff00ff>
    80002c38:	01009093          	sll	ra,ra,0x10
    80002c3c:	f0008093          	add	ra,ra,-256
    80002c40:	0f0f1137          	lui	sp,0xf0f1
    80002c44:	f0f1011b          	addw	sp,sp,-241 # f0f0f0f <_start-0x70f0f0f1>
    80002c48:	0020c733          	xor	a4,ra,sp
    80002c4c:	00120213          	add	tp,tp,1 # 1 <_start-0x7fffffff>
    80002c50:	00200293          	li	t0,2
    80002c54:	fc521ee3          	bne	tp,t0,80002c30 <test_12+0x8>
    80002c58:	000f03b7          	lui	t2,0xf0
    80002c5c:	0ff3839b          	addw	t2,t2,255 # f00ff <_start-0x7ff0ff01>
    80002c60:	00c39393          	sll	t2,t2,0xc
    80002c64:	00f38393          	add	t2,t2,15
    80002c68:	36771663          	bne	a4,t2,80002fd4 <fail>

0000000080002c6c <test_13>:
    80002c6c:	00d00193          	li	gp,13
    80002c70:	00000213          	li	tp,0
    80002c74:	0ff010b7          	lui	ra,0xff01
    80002c78:	ff00809b          	addw	ra,ra,-16 # ff00ff0 <_start-0x700ff010>
    80002c7c:	000f1137          	lui	sp,0xf1
    80002c80:	f0f1011b          	addw	sp,sp,-241 # f0f0f <_start-0x7ff0f0f1>
    80002c84:	00c11113          	sll	sp,sp,0xc
    80002c88:	0f010113          	add	sp,sp,240
    80002c8c:	00000013          	nop
    80002c90:	0020c733          	xor	a4,ra,sp
    80002c94:	00120213          	add	tp,tp,1 # 1 <_start-0x7fffffff>
    80002c98:	00200293          	li	t0,2
    80002c9c:	fc521ce3          	bne	tp,t0,80002c74 <test_13+0x8>
    80002ca0:	000103b7          	lui	t2,0x10
    80002ca4:	f013839b          	addw	t2,t2,-255 # ff01 <_start-0x7fff00ff>
    80002ca8:	01039393          	sll	t2,t2,0x10
    80002cac:	f0038393          	add	t2,t2,-256
    80002cb0:	32771263          	bne	a4,t2,80002fd4 <fail>

0000000080002cb4 <test_14>:
    80002cb4:	00e00193          	li	gp,14
    80002cb8:	00000213          	li	tp,0
    80002cbc:	00ff00b7          	lui	ra,0xff0
    80002cc0:	0ff0809b          	addw	ra,ra,255 # ff00ff <_start-0x7f00ff01>
    80002cc4:	0f0f1137          	lui	sp,0xf0f1
    80002cc8:	f0f1011b          	addw	sp,sp,-241 # f0f0f0f <_start-0x70f0f0f1>
    80002ccc:	00000013          	nop
    80002cd0:	00000013          	nop
    80002cd4:	0020c733          	xor	a4,ra,sp
    80002cd8:	00120213          	add	tp,tp,1 # 1 <_start-0x7fffffff>
    80002cdc:	00200293          	li	t0,2
    80002ce0:	fc521ee3          	bne	tp,t0,80002cbc <test_14+0x8>
    80002ce4:	0ff013b7          	lui	t2,0xff01
    80002ce8:	ff03839b          	addw	t2,t2,-16 # ff00ff0 <_start-0x700ff010>
    80002cec:	2e771463          	bne	a4,t2,80002fd4 <fail>

0000000080002cf0 <test_15>:
    80002cf0:	00f00193          	li	gp,15
    80002cf4:	00000213          	li	tp,0
    80002cf8:	000100b7          	lui	ra,0x10
    80002cfc:	f010809b          	addw	ra,ra,-255 # ff01 <_start-0x7fff00ff>
    80002d00:	01009093          	sll	ra,ra,0x10
    80002d04:	f0008093          	add	ra,ra,-256
    80002d08:	00000013          	nop
    80002d0c:	0f0f1137          	lui	sp,0xf0f1
    80002d10:	f0f1011b          	addw	sp,sp,-241 # f0f0f0f <_start-0x70f0f0f1>
    80002d14:	0020c733          	xor	a4,ra,sp
    80002d18:	00120213          	add	tp,tp,1 # 1 <_start-0x7fffffff>
    80002d1c:	00200293          	li	t0,2
    80002d20:	fc521ce3          	bne	tp,t0,80002cf8 <test_15+0x8>
    80002d24:	000f03b7          	lui	t2,0xf0
    80002d28:	0ff3839b          	addw	t2,t2,255 # f00ff <_start-0x7ff0ff01>
    80002d2c:	00c39393          	sll	t2,t2,0xc
    80002d30:	00f38393          	add	t2,t2,15
    80002d34:	2a771063          	bne	a4,t2,80002fd4 <fail>

0000000080002d38 <test_16>:
    80002d38:	01000193          	li	gp,16
    80002d3c:	00000213          	li	tp,0
    80002d40:	0ff010b7          	lui	ra,0xff01
    80002d44:	ff00809b          	addw	ra,ra,-16 # ff00ff0 <_start-0x700ff010>
    80002d48:	00000013          	nop
    80002d4c:	000f1137          	lui	sp,0xf1
    80002d50:	f0f1011b          	addw	sp,sp,-241 # f0f0f <_start-0x7ff0f0f1>
    80002d54:	00c11113          	sll	sp,sp,0xc
    80002d58:	0f010113          	add	sp,sp,240
    80002d5c:	00000013          	nop
    80002d60:	0020c733          	xor	a4,ra,sp
    80002d64:	00120213          	add	tp,tp,1 # 1 <_start-0x7fffffff>
    80002d68:	00200293          	li	t0,2
    80002d6c:	fc521ae3          	bne	tp,t0,80002d40 <test_16+0x8>
    80002d70:	000103b7          	lui	t2,0x10
    80002d74:	f013839b          	addw	t2,t2,-255 # ff01 <_start-0x7fff00ff>
    80002d78:	01039393          	sll	t2,t2,0x10
    80002d7c:	f0038393          	add	t2,t2,-256
    80002d80:	24771a63          	bne	a4,t2,80002fd4 <fail>

0000000080002d84 <test_17>:
    80002d84:	01100193          	li	gp,17
    80002d88:	00000213          	li	tp,0
    80002d8c:	00ff00b7          	lui	ra,0xff0
    80002d90:	0ff0809b          	addw	ra,ra,255 # ff00ff <_start-0x7f00ff01>
    80002d94:	00000013          	nop
    80002d98:	00000013          	nop
    80002d9c:	0f0f1137          	lui	sp,0xf0f1
    80002da0:	f0f1011b          	addw	sp,sp,-241 # f0f0f0f <_start-0x70f0f0f1>
    80002da4:	0020c733          	xor	a4,ra,sp
    80002da8:	00120213          	add	tp,tp,1 # 1 <_start-0x7fffffff>
    80002dac:	00200293          	li	t0,2
    80002db0:	fc521ee3          	bne	tp,t0,80002d8c <test_17+0x8>
    80002db4:	0ff013b7          	lui	t2,0xff01
    80002db8:	ff03839b          	addw	t2,t2,-16 # ff00ff0 <_start-0x700ff010>
    80002dbc:	20771c63          	bne	a4,t2,80002fd4 <fail>

0000000080002dc0 <test_18>:
    80002dc0:	01200193          	li	gp,18
    80002dc4:	00000213          	li	tp,0
    80002dc8:	0f0f1137          	lui	sp,0xf0f1
    80002dcc:	f0f1011b          	addw	sp,sp,-241 # f0f0f0f <_start-0x70f0f0f1>
    80002dd0:	000100b7          	lui	ra,0x10
    80002dd4:	f010809b          	addw	ra,ra,-255 # ff01 <_start-0x7fff00ff>
    80002dd8:	01009093          	sll	ra,ra,0x10
    80002ddc:	f0008093          	add	ra,ra,-256
    80002de0:	0020c733          	xor	a4,ra,sp
    80002de4:	00120213          	add	tp,tp,1 # 1 <_start-0x7fffffff>
    80002de8:	00200293          	li	t0,2
    80002dec:	fc521ee3          	bne	tp,t0,80002dc8 <test_18+0x8>
    80002df0:	000f03b7          	lui	t2,0xf0
    80002df4:	0ff3839b          	addw	t2,t2,255 # f00ff <_start-0x7ff0ff01>
    80002df8:	00c39393          	sll	t2,t2,0xc
    80002dfc:	00f38393          	add	t2,t2,15
    80002e00:	1c771a63          	bne	a4,t2,80002fd4 <fail>

0000000080002e04 <test_19>:
    80002e04:	01300193          	li	gp,19
    80002e08:	00000213          	li	tp,0
    80002e0c:	000f1137          	lui	sp,0xf1
    80002e10:	f0f1011b          	addw	sp,sp,-241 # f0f0f <_start-0x7ff0f0f1>
    80002e14:	00c11113          	sll	sp,sp,0xc
    80002e18:	0f010113          	add	sp,sp,240
    80002e1c:	0ff010b7          	lui	ra,0xff01
    80002e20:	ff00809b          	addw	ra,ra,-16 # ff00ff0 <_start-0x700ff010>
    80002e24:	00000013          	nop
    80002e28:	0020c733          	xor	a4,ra,sp
    80002e2c:	00120213          	add	tp,tp,1 # 1 <_start-0x7fffffff>
    80002e30:	00200293          	li	t0,2
    80002e34:	fc521ce3          	bne	tp,t0,80002e0c <test_19+0x8>
    80002e38:	000103b7          	lui	t2,0x10
    80002e3c:	f013839b          	addw	t2,t2,-255 # ff01 <_start-0x7fff00ff>
    80002e40:	01039393          	sll	t2,t2,0x10
    80002e44:	f0038393          	add	t2,t2,-256
    80002e48:	18771663          	bne	a4,t2,80002fd4 <fail>

0000000080002e4c <test_20>:
    80002e4c:	01400193          	li	gp,20
    80002e50:	00000213          	li	tp,0
    80002e54:	0f0f1137          	lui	sp,0xf0f1
    80002e58:	f0f1011b          	addw	sp,sp,-241 # f0f0f0f <_start-0x70f0f0f1>
    80002e5c:	00ff00b7          	lui	ra,0xff0
    80002e60:	0ff0809b          	addw	ra,ra,255 # ff00ff <_start-0x7f00ff01>
    80002e64:	00000013          	nop
    80002e68:	00000013          	nop
    80002e6c:	0020c733          	xor	a4,ra,sp
    80002e70:	00120213          	add	tp,tp,1 # 1 <_start-0x7fffffff>
    80002e74:	00200293          	li	t0,2
    80002e78:	fc521ee3          	bne	tp,t0,80002e54 <test_20+0x8>
    80002e7c:	0ff013b7          	lui	t2,0xff01
    80002e80:	ff03839b          	addw	t2,t2,-16 # ff00ff0 <_start-0x700ff010>
    80002e84:	14771863          	bne	a4,t2,80002fd4 <fail>

0000000080002e88 <test_21>:
    80002e88:	01500193          	li	gp,21
    80002e8c:	00000213          	li	tp,0
    80002e90:	0f0f1137          	lui	sp,0xf0f1
    80002e94:	f0f1011b          	addw	sp,sp,-241 # f0f0f0f <_start-0x70f0f0f1>
    80002e98:	00000013          	nop
    80002e9c:	000100b7          	lui	ra,0x10
    80002ea0:	f010809b          	addw	ra,ra,-255 # ff01 <_start-0x7fff00ff>
    80002ea4:	01009093          	sll	ra,ra,0x10
    80002ea8:	f0008093          	add	ra,ra,-256
    80002eac:	0020c733          	xor	a4,ra,sp
    80002eb0:	00120213          	add	tp,tp,1 # 1 <_start-0x7fffffff>
    80002eb4:	00200293          	li	t0,2
    80002eb8:	fc521ce3          	bne	tp,t0,80002e90 <test_21+0x8>
    80002ebc:	000f03b7          	lui	t2,0xf0
    80002ec0:	0ff3839b          	addw	t2,t2,255 # f00ff <_start-0x7ff0ff01>
    80002ec4:	00c39393          	sll	t2,t2,0xc
    80002ec8:	00f38393          	add	t2,t2,15
    80002ecc:	10771463          	bne	a4,t2,80002fd4 <fail>

0000000080002ed0 <test_22>:
    80002ed0:	01600193          	li	gp,22
    80002ed4:	00000213          	li	tp,0
    80002ed8:	000f1137          	lui	sp,0xf1
    80002edc:	f0f1011b          	addw	sp,sp,-241 # f0f0f <_start-0x7ff0f0f1>
    80002ee0:	00c11113          	sll	sp,sp,0xc
    80002ee4:	0f010113          	add	sp,sp,240
    80002ee8:	00000013          	nop
    80002eec:	0ff010b7          	lui	ra,0xff01
    80002ef0:	ff00809b          	addw	ra,ra,-16 # ff00ff0 <_start-0x700ff010>
    80002ef4:	00000013          	nop
    80002ef8:	0020c733          	xor	a4,ra,sp
    80002efc:	00120213          	add	tp,tp,1 # 1 <_start-0x7fffffff>
    80002f00:	00200293          	li	t0,2
    80002f04:	fc521ae3          	bne	tp,t0,80002ed8 <test_22+0x8>
    80002f08:	000103b7          	lui	t2,0x10
    80002f0c:	f013839b          	addw	t2,t2,-255 # ff01 <_start-0x7fff00ff>
    80002f10:	01039393          	sll	t2,t2,0x10
    80002f14:	f0038393          	add	t2,t2,-256
    80002f18:	0a771e63          	bne	a4,t2,80002fd4 <fail>

0000000080002f1c <test_23>:
    80002f1c:	01700193          	li	gp,23
    80002f20:	00000213          	li	tp,0
    80002f24:	0f0f1137          	lui	sp,0xf0f1
    80002f28:	f0f1011b          	addw	sp,sp,-241 # f0f0f0f <_start-0x70f0f0f1>
    80002f2c:	00000013          	nop
    80002f30:	00000013          	nop
    80002f34:	00ff00b7          	lui	ra,0xff0
    80002f38:	0ff0809b          	addw	ra,ra,255 # ff00ff <_start-0x7f00ff01>
    80002f3c:	0020c733          	xor	a4,ra,sp
    80002f40:	00120213          	add	tp,tp,1 # 1 <_start-0x7fffffff>
    80002f44:	00200293          	li	t0,2
    80002f48:	fc521ee3          	bne	tp,t0,80002f24 <test_23+0x8>
    80002f4c:	0ff013b7          	lui	t2,0xff01
    80002f50:	ff03839b          	addw	t2,t2,-16 # ff00ff0 <_start-0x700ff010>
    80002f54:	08771063          	bne	a4,t2,80002fd4 <fail>

0000000080002f58 <test_24>:
    80002f58:	01800193          	li	gp,24
    80002f5c:	000100b7          	lui	ra,0x10
    80002f60:	f010809b          	addw	ra,ra,-255 # ff01 <_start-0x7fff00ff>
    80002f64:	01009093          	sll	ra,ra,0x10
    80002f68:	f0008093          	add	ra,ra,-256
    80002f6c:	00104133          	xor	sp,zero,ra
    80002f70:	000103b7          	lui	t2,0x10
    80002f74:	f013839b          	addw	t2,t2,-255 # ff01 <_start-0x7fff00ff>
    80002f78:	01039393          	sll	t2,t2,0x10
    80002f7c:	f0038393          	add	t2,t2,-256
    80002f80:	04711a63          	bne	sp,t2,80002fd4 <fail>

0000000080002f84 <test_25>:
    80002f84:	01900193          	li	gp,25
    80002f88:	00ff00b7          	lui	ra,0xff0
    80002f8c:	0ff0809b          	addw	ra,ra,255 # ff00ff <_start-0x7f00ff01>
    80002f90:	0000c133          	xor	sp,ra,zero
    80002f94:	00ff03b7          	lui	t2,0xff0
    80002f98:	0ff3839b          	addw	t2,t2,255 # ff00ff <_start-0x7f00ff01>
    80002f9c:	02711c63          	bne	sp,t2,80002fd4 <fail>

0000000080002fa0 <test_26>:
    80002fa0:	01a00193          	li	gp,26
    80002fa4:	000040b3          	xor	ra,zero,zero
    80002fa8:	00000393          	li	t2,0
    80002fac:	02709463          	bne	ra,t2,80002fd4 <fail>

0000000080002fb0 <test_27>:
    80002fb0:	01b00193          	li	gp,27
    80002fb4:	111110b7          	lui	ra,0x11111
    80002fb8:	1110809b          	addw	ra,ra,273 # 11111111 <_start-0x6eeeeeef>
    80002fbc:	22222137          	lui	sp,0x22222
    80002fc0:	2221011b          	addw	sp,sp,546 # 22222222 <_start-0x5dddddde>
    80002fc4:	0020c033          	xor	zero,ra,sp
    80002fc8:	00000393          	li	t2,0
    80002fcc:	00701463          	bne	zero,t2,80002fd4 <fail>
    80002fd0:	00301a63          	bne	zero,gp,80002fe4 <pass>

0000000080002fd4 <fail>:
    80002fd4:	00119513          	sll	a0,gp,0x1
    80002fd8:	00050063          	beqz	a0,80002fd8 <fail+0x4>
    80002fdc:	00156513          	or	a0,a0,1
    80002fe0:	00000073          	ecall

0000000080002fe4 <pass>:
    80002fe4:	00100513          	li	a0,1
    80002fe8:	00000073          	ecall
    80002fec:	c0001073          	unimp
